
obj/net/ns:     file format elf32-i386

Disassembly of section .text:

00800020 <_start>:
.text
.globl _start
_start:
	// See if we were started with arguments on the stack
	cmpl $USTACKTOP, %esp
  800020:	81 fc 00 e0 bf ee    	cmp    $0xeebfe000,%esp
	jne args_exist
  800026:	75 04                	jne    80002c <args_exist>

	// If not, push dummy argc/argv arguments.
	// This happens when we are loaded by the kernel,
	// because the kernel does not know about passing arguments.
	pushl $0
  800028:	6a 00                	push   $0x0
	pushl $0
  80002a:	6a 00                	push   $0x0

0080002c <args_exist>:

args_exist:
	call libmain
  80002c:	e8 3f 0a 00 00       	call   800a70 <libmain>
1:      jmp 1b
  800031:	eb fe                	jmp    800031 <args_exist+0x5>
	...

00800034 <next_i>:
static envid_t input_envid;
static envid_t output_envid;

static bool buse[QUEUE_SIZE];
static int next_i(int i) { return (i+1) % QUEUE_SIZE; }
  800034:	55                   	push   %ebp
  800035:	89 e5                	mov    %esp,%ebp
  800037:	8b 45 08             	mov    0x8(%ebp),%eax
  80003a:	40                   	inc    %eax
  80003b:	ba 14 00 00 00       	mov    $0x14,%edx
  800040:	89 d1                	mov    %edx,%ecx
  800042:	99                   	cltd   
  800043:	f7 f9                	idiv   %ecx
  800045:	89 d0                	mov    %edx,%eax
  800047:	c9                   	leave  
  800048:	c3                   	ret    

00800049 <prev_i>:
static int prev_i(int i) { return (i ? i-1 : QUEUE_SIZE-1); }
  800049:	55                   	push   %ebp
  80004a:	89 e5                	mov    %esp,%ebp
  80004c:	8b 55 08             	mov    0x8(%ebp),%edx
  80004f:	b8 13 00 00 00       	mov    $0x13,%eax
  800054:	85 d2                	test   %edx,%edx
  800056:	74 03                	je     80005b <prev_i+0x12>
  800058:	8d 42 ff             	lea    0xffffffff(%edx),%eax
  80005b:	c9                   	leave  
  80005c:	c3                   	ret    

0080005d <get_buffer>:

static void *
get_buffer() {
  80005d:	55                   	push   %ebp
  80005e:	89 e5                	mov    %esp,%ebp
  800060:	83 ec 08             	sub    $0x8,%esp
    void *va;

    int i;
    for (i = 0; i < QUEUE_SIZE; i++)
  800063:	ba 00 00 00 00       	mov    $0x0,%edx
  800068:	b8 20 84 81 00       	mov    $0x818420,%eax
	if (!buse[i]) break;
  80006d:	83 3c 90 00          	cmpl   $0x0,(%eax,%edx,4)
  800071:	74 06                	je     800079 <get_buffer+0x1c>
  800073:	42                   	inc    %edx
  800074:	83 fa 13             	cmp    $0x13,%edx
  800077:	7e f4                	jle    80006d <get_buffer+0x10>

    if (i == QUEUE_SIZE) {
  800079:	83 fa 14             	cmp    $0x14,%edx
  80007c:	75 14                	jne    800092 <get_buffer+0x35>
	panic("NS: buffer overflow");
  80007e:	83 ec 04             	sub    $0x4,%esp
  800081:	68 20 19 81 00       	push   $0x811920
  800086:	6a 3f                	push   $0x3f
  800088:	68 34 19 81 00       	push   $0x811934
  80008d:	e8 3a 0a 00 00       	call   800acc <_panic>
	return 0;
    }

    va = (void *)(REQVA + i * PGSIZE);
  800092:	89 d0                	mov    %edx,%eax
  800094:	c1 e0 0c             	shl    $0xc,%eax
  800097:	05 00 b0 fe 0f       	add    $0xffeb000,%eax
    buse[i] = 1;
  80009c:	c7 04 95 20 84 81 00 	movl   $0x1,0x818420(,%edx,4)
  8000a3:	01 00 00 00 
    
    return va;
}
  8000a7:	c9                   	leave  
  8000a8:	c3                   	ret    

008000a9 <put_buffer>:

static void
put_buffer(void *va) {
  8000a9:	55                   	push   %ebp
  8000aa:	89 e5                	mov    %esp,%ebp
    int i = ((uint32_t)va - REQVA) / PGSIZE;
  8000ac:	8b 45 08             	mov    0x8(%ebp),%eax
  8000af:	2d 00 b0 fe 0f       	sub    $0xffeb000,%eax
  8000b4:	c1 e8 0c             	shr    $0xc,%eax
    buse[i] = 0;
  8000b7:	c7 04 85 20 84 81 00 	movl   $0x0,0x818420(,%eax,4)
  8000be:	00 00 00 00 
}
  8000c2:	c9                   	leave  
  8000c3:	c3                   	ret    

008000c4 <lwip_init>:

static void
lwip_init(struct netif *nif, void *if_state,
	  uint32_t init_addr, uint32_t init_mask, uint32_t init_gw)
{
  8000c4:	55                   	push   %ebp
  8000c5:	89 e5                	mov    %esp,%ebp
  8000c7:	53                   	push   %ebx
  8000c8:	83 ec 18             	sub    $0x18,%esp
  8000cb:	8b 5d 08             	mov    0x8(%ebp),%ebx
    struct ip_addr ipaddr, netmask, gateway;
    ipaddr.addr  = init_addr;
  8000ce:	8b 45 10             	mov    0x10(%ebp),%eax
  8000d1:	89 45 f0             	mov    %eax,0xfffffff0(%ebp)
    netmask.addr = init_mask;
  8000d4:	8b 45 14             	mov    0x14(%ebp),%eax
  8000d7:	89 45 f4             	mov    %eax,0xfffffff4(%ebp)
    gateway.addr = init_gw;
  8000da:	8b 45 18             	mov    0x18(%ebp),%eax
  8000dd:	89 45 f8             	mov    %eax,0xfffffff8(%ebp)

    if (0 == netif_add(nif, &ipaddr, &netmask, &gateway,
  8000e0:	68 5f 92 80 00       	push   $0x80925f
  8000e5:	68 27 db 80 00       	push   $0x80db27
  8000ea:	ff 75 0c             	pushl  0xc(%ebp)
  8000ed:	8d 45 f8             	lea    0xfffffff8(%ebp),%eax
  8000f0:	50                   	push   %eax
  8000f1:	8d 45 f4             	lea    0xfffffff4(%ebp),%eax
  8000f4:	50                   	push   %eax
  8000f5:	8d 45 f0             	lea    0xfffffff0(%ebp),%eax
  8000f8:	50                   	push   %eax
  8000f9:	53                   	push   %ebx
  8000fa:	e8 31 71 00 00       	call   807230 <netif_add>
  8000ff:	83 c4 20             	add    $0x20,%esp
  800102:	85 c0                	test   %eax,%eax
  800104:	75 14                	jne    80011a <lwip_init+0x56>
		       if_state,
		       jif_init,
		       ip_input))
	panic("lwip_init: error in netif_add\n");
  800106:	83 ec 04             	sub    $0x4,%esp
  800109:	68 2c 1a 81 00       	push   $0x811a2c
  80010e:	6a 5c                	push   $0x5c
  800110:	68 34 19 81 00       	push   $0x811934
  800115:	e8 b2 09 00 00       	call   800acc <_panic>

    netif_set_default(nif);
  80011a:	83 ec 0c             	sub    $0xc,%esp
  80011d:	53                   	push   %ebx
  80011e:	e8 07 73 00 00       	call   80742a <netif_set_default>
    netif_set_up(nif);
  800123:	89 1c 24             	mov    %ebx,(%esp)
  800126:	e8 0c 73 00 00       	call   807437 <netif_set_up>
}
  80012b:	8b 5d fc             	mov    0xfffffffc(%ebp),%ebx
  80012e:	c9                   	leave  
  80012f:	c3                   	ret    

00800130 <net_timer>:

static void __attribute__((noreturn))
net_timer(uint32_t arg)
{
  800130:	55                   	push   %ebp
  800131:	89 e5                	mov    %esp,%ebp
  800133:	56                   	push   %esi
  800134:	53                   	push   %ebx
    struct timer_thread *t = (struct timer_thread *) arg;
  800135:	8b 75 08             	mov    0x8(%ebp),%esi

    for (;;) {
	uint32_t cur = sys_time_msec();
  800138:	e8 ca 16 00 00       	call   801807 <sys_time_msec>
  80013d:	89 c3                	mov    %eax,%ebx

	lwip_core_lock();
  80013f:	e8 1c d3 00 00       	call   80d460 <lwip_core_lock>
	t->func();
  800144:	ff 56 04             	call   *0x4(%esi)
	lwip_core_unlock();
  800147:	e8 19 d3 00 00       	call   80d465 <lwip_core_unlock>

	thread_wait(0, 0, cur + t->msec);
  80014c:	83 ec 04             	sub    $0x4,%esp
  80014f:	89 d8                	mov    %ebx,%eax
  800151:	03 06                	add    (%esi),%eax
  800153:	50                   	push   %eax
  800154:	6a 00                	push   $0x0
  800156:	6a 00                	push   $0x0
  800158:	e8 5f d3 00 00       	call   80d4bc <thread_wait>
  80015d:	83 c4 10             	add    $0x10,%esp
  800160:	eb d6                	jmp    800138 <net_timer+0x8>

00800162 <start_timer>:
    }
}

static void
start_timer(struct timer_thread *t, void (*func)(void), const char *name, int msec)
{
  800162:	55                   	push   %ebp
  800163:	89 e5                	mov    %esp,%ebp
  800165:	83 ec 08             	sub    $0x8,%esp
  800168:	8b 55 08             	mov    0x8(%ebp),%edx
  80016b:	8b 4d 10             	mov    0x10(%ebp),%ecx
    t->msec = msec;
  80016e:	8b 45 14             	mov    0x14(%ebp),%eax
  800171:	89 02                	mov    %eax,(%edx)
    t->func = func;
  800173:	8b 45 0c             	mov    0xc(%ebp),%eax
  800176:	89 42 04             	mov    %eax,0x4(%edx)
    t->name = name;
  800179:	89 4a 08             	mov    %ecx,0x8(%edx)
    int r = thread_create(0, name, &net_timer, (uint32_t)t);
  80017c:	52                   	push   %edx
  80017d:	68 30 01 80 00       	push   $0x800130
  800182:	51                   	push   %ecx
  800183:	6a 00                	push   $0x0
  800185:	e8 44 d4 00 00       	call   80d5ce <thread_create>
    if (r < 0)
  80018a:	83 c4 10             	add    $0x10,%esp
  80018d:	85 c0                	test   %eax,%eax
  80018f:	79 1e                	jns    8001af <start_timer+0x4d>
	panic("cannot create timer thread: %s", e2s(r));
  800191:	83 ec 0c             	sub    $0xc,%esp
  800194:	50                   	push   %eax
  800195:	e8 62 d7 00 00       	call   80d8fc <e2s>
  80019a:	83 c4 10             	add    $0x10,%esp
  80019d:	50                   	push   %eax
  80019e:	68 4c 1a 81 00       	push   $0x811a4c
  8001a3:	6a 7a                	push   $0x7a
  8001a5:	68 34 19 81 00       	push   $0x811934
  8001aa:	e8 1d 09 00 00       	call   800acc <_panic>
}
  8001af:	c9                   	leave  
  8001b0:	c3                   	ret    

008001b1 <tcpip_init_done>:

static void
tcpip_init_done(void *arg)
{
  8001b1:	55                   	push   %ebp
  8001b2:	89 e5                	mov    %esp,%ebp
  8001b4:	83 ec 14             	sub    $0x14,%esp
  8001b7:	8b 45 08             	mov    0x8(%ebp),%eax
    uint32_t *done = arg;
    *done = 1;
  8001ba:	c7 00 01 00 00 00    	movl   $0x1,(%eax)
    thread_wakeup(done);
  8001c0:	50                   	push   %eax
  8001c1:	e8 d5 d2 00 00       	call   80d49b <thread_wakeup>
}
  8001c6:	c9                   	leave  
  8001c7:	c3                   	ret    

008001c8 <serve_init>:

void
serve_init(uint32_t ipaddr, uint32_t netmask, uint32_t gw)
{
  8001c8:	55                   	push   %ebp
  8001c9:	89 e5                	mov    %esp,%ebp
  8001cb:	53                   	push   %ebx
  8001cc:	83 ec 04             	sub    $0x4,%esp
  8001cf:	8b 5d 08             	mov    0x8(%ebp),%ebx
    int r;
    lwip_core_lock();
  8001d2:	e8 89 d2 00 00       	call   80d460 <lwip_core_lock>

    uint32_t done = 0;
  8001d7:	c7 45 f8 00 00 00 00 	movl   $0x0,0xfffffff8(%ebp)
    tcpip_init(&tcpip_init_done, &done);
  8001de:	83 ec 08             	sub    $0x8,%esp
  8001e1:	8d 45 f8             	lea    0xfffffff8(%ebp),%eax
  8001e4:	50                   	push   %eax
  8001e5:	68 b1 01 80 00       	push   $0x8001b1
  8001ea:	e8 35 4d 00 00       	call   804f24 <tcpip_init>
    lwip_core_unlock();
  8001ef:	e8 71 d2 00 00       	call   80d465 <lwip_core_unlock>
    thread_wait(&done, 0, (uint32_t)~0);
  8001f4:	83 c4 0c             	add    $0xc,%esp
  8001f7:	6a ff                	push   $0xffffffff
  8001f9:	6a 00                	push   $0x0
  8001fb:	8d 45 f8             	lea    0xfffffff8(%ebp),%eax
  8001fe:	50                   	push   %eax
  8001ff:	e8 b8 d2 00 00       	call   80d4bc <thread_wait>
    lwip_core_lock();
  800204:	e8 57 d2 00 00       	call   80d460 <lwip_core_lock>

    lwip_init(&nif, &output_envid, ipaddr, netmask, gw);
  800209:	83 c4 04             	add    $0x4,%esp
  80020c:	ff 75 10             	pushl  0x10(%ebp)
  80020f:	ff 75 0c             	pushl  0xc(%ebp)
  800212:	53                   	push   %ebx
  800213:	68 0c 84 81 00       	push   $0x81840c
  800218:	68 20 e6 b3 00       	push   $0xb3e620
  80021d:	e8 a2 fe ff ff       	call   8000c4 <lwip_init>

    start_timer(&t_arp, &etharp_tmr, "arp timer", ARP_TMR_INTERVAL);
  800222:	83 c4 20             	add    $0x20,%esp
  800225:	68 88 13 00 00       	push   $0x1388
  80022a:	68 3f 19 81 00       	push   $0x81193f
  80022f:	68 f1 bd 80 00       	push   $0x80bdf1
  800234:	68 e0 83 81 00       	push   $0x8183e0
  800239:	e8 24 ff ff ff       	call   800162 <start_timer>
    start_timer(&t_tcpf, &tcp_fasttmr, "tcp f timer", TCP_FAST_INTERVAL);
  80023e:	68 fa 00 00 00       	push   $0xfa
  800243:	68 49 19 81 00       	push   $0x811949
  800248:	68 33 8c 80 00       	push   $0x808c33
  80024d:	68 ec 83 81 00       	push   $0x8183ec
  800252:	e8 0b ff ff ff       	call   800162 <start_timer>
    start_timer(&t_tcps, &tcp_slowtmr, "tcp s timer", TCP_SLOW_INTERVAL);
  800257:	83 c4 20             	add    $0x20,%esp
  80025a:	68 f4 01 00 00       	push   $0x1f4
  80025f:	68 55 19 81 00       	push   $0x811955
  800264:	68 f9 87 80 00       	push   $0x8087f9
  800269:	68 f8 83 81 00       	push   $0x8183f8
  80026e:	e8 ef fe ff ff       	call   800162 <start_timer>

    struct in_addr ia = {ipaddr};
    cprintf("ns: %02x:%02x:%02x:%02x:%02x:%02x" 
  800273:	83 ec 0c             	sub    $0xc,%esp
  800276:	53                   	push   %ebx
  800277:	e8 50 a3 00 00       	call   80a5cc <inet_ntoa>
  80027c:	83 c4 10             	add    $0x10,%esp
  80027f:	50                   	push   %eax
  800280:	0f b6 05 4a e6 b3 00 	movzbl 0xb3e64a,%eax
  800287:	50                   	push   %eax
  800288:	0f b6 05 49 e6 b3 00 	movzbl 0xb3e649,%eax
  80028f:	50                   	push   %eax
  800290:	0f b6 05 48 e6 b3 00 	movzbl 0xb3e648,%eax
  800297:	50                   	push   %eax
  800298:	0f b6 05 47 e6 b3 00 	movzbl 0xb3e647,%eax
  80029f:	50                   	push   %eax
  8002a0:	0f b6 05 46 e6 b3 00 	movzbl 0xb3e646,%eax
  8002a7:	50                   	push   %eax
  8002a8:	0f b6 05 45 e6 b3 00 	movzbl 0xb3e645,%eax
  8002af:	50                   	push   %eax
  8002b0:	68 6c 1a 81 00       	push   $0x811a6c
  8002b5:	e8 02 09 00 00       	call   800bbc <cprintf>
	    " bound to static IP %s\n", 
	    nif.hwaddr[0], nif.hwaddr[1], nif.hwaddr[2],
	    nif.hwaddr[3], nif.hwaddr[4], nif.hwaddr[5],
	    inet_ntoa(ia));
    
    lwip_core_unlock();
  8002ba:	83 c4 30             	add    $0x30,%esp
  8002bd:	e8 a3 d1 00 00       	call   80d465 <lwip_core_unlock>

    cprintf("NS: TCP/IP initialized.\n");
  8002c2:	83 ec 0c             	sub    $0xc,%esp
  8002c5:	68 61 19 81 00       	push   $0x811961
  8002ca:	e8 ed 08 00 00       	call   800bbc <cprintf>
}
  8002cf:	8b 5d fc             	mov    0xfffffffc(%ebp),%ebx
  8002d2:	c9                   	leave  
  8002d3:	c3                   	ret    

008002d4 <serve_accept>:

static void
serve_accept(envid_t envid, struct Nsreq_accept* rq) {
  8002d4:	55                   	push   %ebp
  8002d5:	89 e5                	mov    %esp,%ebp
  8002d7:	57                   	push   %edi
  8002d8:	56                   	push   %esi
  8002d9:	53                   	push   %ebx
  8002da:	83 ec 0c             	sub    $0xc,%esp
    int r;
    struct Nsret_accept *ret;

    void *buf = get_buffer();
  8002dd:	e8 7b fd ff ff       	call   80005d <get_buffer>
  8002e2:	89 c3                	mov    %eax,%ebx
    sys_page_alloc(0, buf, PTE_P|PTE_W|PTE_U);
  8002e4:	83 ec 04             	sub    $0x4,%esp
  8002e7:	6a 07                	push   $0x7
  8002e9:	50                   	push   %eax
  8002ea:	6a 00                	push   $0x0
  8002ec:	e8 a1 12 00 00       	call   801592 <sys_page_alloc>

    ret = (struct Nsret_accept*)buf;
  8002f1:	89 df                	mov    %ebx,%edi
    r = lwip_accept(rq->req_s, &ret->ret_addr, &ret->ret_addrlen);
  8002f3:	83 c4 0c             	add    $0xc,%esp
  8002f6:	8d 43 10             	lea    0x10(%ebx),%eax
  8002f9:	50                   	push   %eax
  8002fa:	53                   	push   %ebx
  8002fb:	8b 45 0c             	mov    0xc(%ebp),%eax
  8002fe:	ff 30                	pushl  (%eax)
  800300:	e8 2a 30 00 00       	call   80332f <lwip_accept>
  800305:	89 c6                	mov    %eax,%esi
    if (r < 0) perror("serve_accept");
  800307:	83 c4 10             	add    $0x10,%esp
  80030a:	85 c0                	test   %eax,%eax
  80030c:	79 10                	jns    80031e <serve_accept+0x4a>
  80030e:	83 ec 0c             	sub    $0xc,%esp
  800311:	68 7a 19 81 00       	push   $0x81197a
  800316:	e8 bd d5 00 00       	call   80d8d8 <perror>
  80031b:	83 c4 10             	add    $0x10,%esp

    ipc_send(envid, r, ret, PTE_P|PTE_W|PTE_U);
  80031e:	6a 07                	push   $0x7
  800320:	57                   	push   %edi
  800321:	56                   	push   %esi
  800322:	ff 75 08             	pushl  0x8(%ebp)
  800325:	e8 c5 19 00 00       	call   801cef <ipc_send>
    sys_page_unmap(0, buf);
  80032a:	83 c4 08             	add    $0x8,%esp
  80032d:	53                   	push   %ebx
  80032e:	6a 00                	push   $0x0
  800330:	e8 e2 12 00 00       	call   801617 <sys_page_unmap>
    put_buffer(buf);
  800335:	53                   	push   %ebx
  800336:	e8 6e fd ff ff       	call   8000a9 <put_buffer>
}
  80033b:	8d 65 f4             	lea    0xfffffff4(%ebp),%esp
  80033e:	5b                   	pop    %ebx
  80033f:	5e                   	pop    %esi
  800340:	5f                   	pop    %edi
  800341:	c9                   	leave  
  800342:	c3                   	ret    

00800343 <serve_bind>:

static void
serve_bind(envid_t envid, struct Nsreq_bind* rq) {
  800343:	55                   	push   %ebp
  800344:	89 e5                	mov    %esp,%ebp
  800346:	53                   	push   %ebx
  800347:	83 ec 08             	sub    $0x8,%esp
  80034a:	8b 55 0c             	mov    0xc(%ebp),%edx
    int r = lwip_bind(rq->req_s, &rq->req_name, rq->req_namelen);
  80034d:	ff 72 14             	pushl  0x14(%edx)
  800350:	8d 42 04             	lea    0x4(%edx),%eax
  800353:	50                   	push   %eax
  800354:	ff 32                	pushl  (%edx)
  800356:	e8 c8 31 00 00       	call   803523 <lwip_bind>
  80035b:	89 c3                	mov    %eax,%ebx
    if (r < 0) perror("serve_bind");
  80035d:	83 c4 10             	add    $0x10,%esp
  800360:	85 c0                	test   %eax,%eax
  800362:	79 10                	jns    800374 <serve_bind+0x31>
  800364:	83 ec 0c             	sub    $0xc,%esp
  800367:	68 87 19 81 00       	push   $0x811987
  80036c:	e8 67 d5 00 00       	call   80d8d8 <perror>
  800371:	83 c4 10             	add    $0x10,%esp
    ipc_send(envid, r, 0, 0);
  800374:	6a 00                	push   $0x0
  800376:	6a 00                	push   $0x0
  800378:	53                   	push   %ebx
  800379:	ff 75 08             	pushl  0x8(%ebp)
  80037c:	e8 6e 19 00 00       	call   801cef <ipc_send>
}
  800381:	8b 5d fc             	mov    0xfffffffc(%ebp),%ebx
  800384:	c9                   	leave  
  800385:	c3                   	ret    

00800386 <serve_shutdown>:

static void
serve_shutdown(envid_t envid, struct Nsreq_shutdown* rq) {
  800386:	55                   	push   %ebp
  800387:	89 e5                	mov    %esp,%ebp
  800389:	53                   	push   %ebx
  80038a:	83 ec 0c             	sub    $0xc,%esp
  80038d:	8b 45 0c             	mov    0xc(%ebp),%eax
    int r = lwip_shutdown(rq->req_s, rq->req_how);
  800390:	ff 70 04             	pushl  0x4(%eax)
  800393:	ff 30                	pushl  (%eax)
  800395:	e8 ac 3f 00 00       	call   804346 <lwip_shutdown>
  80039a:	89 c3                	mov    %eax,%ebx
    if (r < 0) perror("serve_shutdown");
  80039c:	83 c4 10             	add    $0x10,%esp
  80039f:	85 c0                	test   %eax,%eax
  8003a1:	79 10                	jns    8003b3 <serve_shutdown+0x2d>
  8003a3:	83 ec 0c             	sub    $0xc,%esp
  8003a6:	68 92 19 81 00       	push   $0x811992
  8003ab:	e8 28 d5 00 00       	call   80d8d8 <perror>
  8003b0:	83 c4 10             	add    $0x10,%esp
    ipc_send(envid, r, 0, 0);
  8003b3:	6a 00                	push   $0x0
  8003b5:	6a 00                	push   $0x0
  8003b7:	53                   	push   %ebx
  8003b8:	ff 75 08             	pushl  0x8(%ebp)
  8003bb:	e8 2f 19 00 00       	call   801cef <ipc_send>
}
  8003c0:	8b 5d fc             	mov    0xfffffffc(%ebp),%ebx
  8003c3:	c9                   	leave  
  8003c4:	c3                   	ret    

008003c5 <serve_close>:

static void
serve_close(envid_t envid, struct Nsreq_close* rq) {
  8003c5:	55                   	push   %ebp
  8003c6:	89 e5                	mov    %esp,%ebp
  8003c8:	53                   	push   %ebx
  8003c9:	83 ec 10             	sub    $0x10,%esp
    int r = lwip_close(rq->req_s);
  8003cc:	8b 45 0c             	mov    0xc(%ebp),%eax
  8003cf:	ff 30                	pushl  (%eax)
  8003d1:	e8 0e 32 00 00       	call   8035e4 <lwip_close>
  8003d6:	89 c3                	mov    %eax,%ebx
    if (r < 0) perror("serve_close");
  8003d8:	83 c4 10             	add    $0x10,%esp
  8003db:	85 c0                	test   %eax,%eax
  8003dd:	79 10                	jns    8003ef <serve_close+0x2a>
  8003df:	83 ec 0c             	sub    $0xc,%esp
  8003e2:	68 a1 19 81 00       	push   $0x8119a1
  8003e7:	e8 ec d4 00 00       	call   80d8d8 <perror>
  8003ec:	83 c4 10             	add    $0x10,%esp
    ipc_send(envid, r, 0, 0);
  8003ef:	6a 00                	push   $0x0
  8003f1:	6a 00                	push   $0x0
  8003f3:	53                   	push   %ebx
  8003f4:	ff 75 08             	pushl  0x8(%ebp)
  8003f7:	e8 f3 18 00 00       	call   801cef <ipc_send>
}
  8003fc:	8b 5d fc             	mov    0xfffffffc(%ebp),%ebx
  8003ff:	c9                   	leave  
  800400:	c3                   	ret    

00800401 <serve_connect>:

static void
serve_connect(envid_t envid, struct Nsreq_connect* rq) {
  800401:	55                   	push   %ebp
  800402:	89 e5                	mov    %esp,%ebp
  800404:	53                   	push   %ebx
  800405:	83 ec 08             	sub    $0x8,%esp
  800408:	8b 55 0c             	mov    0xc(%ebp),%edx
    int r = lwip_connect(rq->req_s, &rq->req_name, rq->req_namelen);
  80040b:	ff 72 14             	pushl  0x14(%edx)
  80040e:	8d 42 04             	lea    0x4(%edx),%eax
  800411:	50                   	push   %eax
  800412:	ff 32                	pushl  (%edx)
  800414:	e8 53 32 00 00       	call   80366c <lwip_connect>
  800419:	89 c3                	mov    %eax,%ebx
    if (r < 0) perror("serve_connect");
  80041b:	83 c4 10             	add    $0x10,%esp
  80041e:	85 c0                	test   %eax,%eax
  800420:	79 10                	jns    800432 <serve_connect+0x31>
  800422:	83 ec 0c             	sub    $0xc,%esp
  800425:	68 ad 19 81 00       	push   $0x8119ad
  80042a:	e8 a9 d4 00 00       	call   80d8d8 <perror>
  80042f:	83 c4 10             	add    $0x10,%esp
    ipc_send(envid, r, 0, 0);
  800432:	6a 00                	push   $0x0
  800434:	6a 00                	push   $0x0
  800436:	53                   	push   %ebx
  800437:	ff 75 08             	pushl  0x8(%ebp)
  80043a:	e8 b0 18 00 00       	call   801cef <ipc_send>
}
  80043f:	8b 5d fc             	mov    0xfffffffc(%ebp),%ebx
  800442:	c9                   	leave  
  800443:	c3                   	ret    

00800444 <serve_listen>:

static void
serve_listen(envid_t envid, struct Nsreq_listen* rq) {
  800444:	55                   	push   %ebp
  800445:	89 e5                	mov    %esp,%ebp
  800447:	53                   	push   %ebx
  800448:	83 ec 0c             	sub    $0xc,%esp
  80044b:	8b 45 0c             	mov    0xc(%ebp),%eax
    int r = lwip_listen(rq->req_s, rq->req_backlog);
  80044e:	ff 70 04             	pushl  0x4(%eax)
  800451:	ff 30                	pushl  (%eax)
  800453:	e8 ea 32 00 00       	call   803742 <lwip_listen>
  800458:	89 c3                	mov    %eax,%ebx
    if (r < 0) perror("serve_listen");
  80045a:	83 c4 10             	add    $0x10,%esp
  80045d:	85 c0                	test   %eax,%eax
  80045f:	79 10                	jns    800471 <serve_listen+0x2d>
  800461:	83 ec 0c             	sub    $0xc,%esp
  800464:	68 bb 19 81 00       	push   $0x8119bb
  800469:	e8 6a d4 00 00       	call   80d8d8 <perror>
  80046e:	83 c4 10             	add    $0x10,%esp
    ipc_send(envid, r, 0, 0);
  800471:	6a 00                	push   $0x0
  800473:	6a 00                	push   $0x0
  800475:	53                   	push   %ebx
  800476:	ff 75 08             	pushl  0x8(%ebp)
  800479:	e8 71 18 00 00       	call   801cef <ipc_send>
}
  80047e:	8b 5d fc             	mov    0xfffffffc(%ebp),%ebx
  800481:	c9                   	leave  
  800482:	c3                   	ret    

00800483 <serve_recv>:

static void
serve_recv(envid_t envid, struct Nsreq_recv* rq) {
  800483:	55                   	push   %ebp
  800484:	89 e5                	mov    %esp,%ebp
  800486:	53                   	push   %ebx
  800487:	83 ec 04             	sub    $0x4,%esp
  80048a:	8b 45 0c             	mov    0xc(%ebp),%eax
    int r;
    void *mem;
    extern uint8_t nsipcbuf[PGSIZE];	// page-aligned, declared in entry.S

    mem = (void *)nsipcbuf;
    r = lwip_recv(rq->req_s, mem, rq->req_len, rq->req_flags);
  80048d:	ff 70 08             	pushl  0x8(%eax)
  800490:	ff 70 04             	pushl  0x4(%eax)
  800493:	68 00 70 81 00       	push   $0x817000
  800498:	ff 30                	pushl  (%eax)
  80049a:	e8 9c 35 00 00       	call   803a3b <lwip_recv>
  80049f:	89 c3                	mov    %eax,%ebx
    if (r < 0) perror("serve_recv");
  8004a1:	83 c4 10             	add    $0x10,%esp
  8004a4:	85 c0                	test   %eax,%eax
  8004a6:	79 10                	jns    8004b8 <serve_recv+0x35>
  8004a8:	83 ec 0c             	sub    $0xc,%esp
  8004ab:	68 c8 19 81 00       	push   $0x8119c8
  8004b0:	e8 23 d4 00 00       	call   80d8d8 <perror>
  8004b5:	83 c4 10             	add    $0x10,%esp

    ipc_send(envid, r, mem, PTE_P|PTE_W|PTE_U);
  8004b8:	6a 07                	push   $0x7
  8004ba:	68 00 70 81 00       	push   $0x817000
  8004bf:	53                   	push   %ebx
  8004c0:	ff 75 08             	pushl  0x8(%ebp)
  8004c3:	e8 27 18 00 00       	call   801cef <ipc_send>
}
  8004c8:	8b 5d fc             	mov    0xfffffffc(%ebp),%ebx
  8004cb:	c9                   	leave  
  8004cc:	c3                   	ret    

008004cd <serve_send>:

static void
serve_send(envid_t envid, struct Nsreq_send* rq) {
  8004cd:	55                   	push   %ebp
  8004ce:	89 e5                	mov    %esp,%ebp
  8004d0:	53                   	push   %ebx
  8004d1:	83 ec 04             	sub    $0x4,%esp
  8004d4:	8b 45 0c             	mov    0xc(%ebp),%eax
    int r = lwip_send(rq->req_s, &rq->req_dataptr, rq->req_size, rq->req_flags);
  8004d7:	ff 70 08             	pushl  0x8(%eax)
  8004da:	ff 70 04             	pushl  0x4(%eax)
  8004dd:	8d 50 0c             	lea    0xc(%eax),%edx
  8004e0:	52                   	push   %edx
  8004e1:	ff 30                	pushl  (%eax)
  8004e3:	e8 70 35 00 00       	call   803a58 <lwip_send>
  8004e8:	89 c3                	mov    %eax,%ebx
    if (r < 0) perror("serve_send");
  8004ea:	83 c4 10             	add    $0x10,%esp
  8004ed:	85 c0                	test   %eax,%eax
  8004ef:	79 10                	jns    800501 <serve_send+0x34>
  8004f1:	83 ec 0c             	sub    $0xc,%esp
  8004f4:	68 d3 19 81 00       	push   $0x8119d3
  8004f9:	e8 da d3 00 00       	call   80d8d8 <perror>
  8004fe:	83 c4 10             	add    $0x10,%esp
    ipc_send(envid, r, 0, 0);
  800501:	6a 00                	push   $0x0
  800503:	6a 00                	push   $0x0
  800505:	53                   	push   %ebx
  800506:	ff 75 08             	pushl  0x8(%ebp)
  800509:	e8 e1 17 00 00       	call   801cef <ipc_send>
}
  80050e:	8b 5d fc             	mov    0xfffffffc(%ebp),%ebx
  800511:	c9                   	leave  
  800512:	c3                   	ret    

00800513 <serve_socket>:

static void
serve_socket(envid_t envid, struct Nsreq_socket *rq) {
  800513:	55                   	push   %ebp
  800514:	89 e5                	mov    %esp,%ebp
  800516:	53                   	push   %ebx
  800517:	83 ec 08             	sub    $0x8,%esp
  80051a:	8b 45 0c             	mov    0xc(%ebp),%eax
    int r = lwip_socket(rq->req_domain, rq->req_type, rq->req_protocol);
  80051d:	ff 70 08             	pushl  0x8(%eax)
  800520:	ff 70 04             	pushl  0x4(%eax)
  800523:	ff 30                	pushl  (%eax)
  800525:	e8 26 37 00 00       	call   803c50 <lwip_socket>
  80052a:	89 c3                	mov    %eax,%ebx
    if (r < 0) perror("serve_socket");
  80052c:	83 c4 10             	add    $0x10,%esp
  80052f:	85 c0                	test   %eax,%eax
  800531:	79 10                	jns    800543 <serve_socket+0x30>
  800533:	83 ec 0c             	sub    $0xc,%esp
  800536:	68 de 19 81 00       	push   $0x8119de
  80053b:	e8 98 d3 00 00       	call   80d8d8 <perror>
  800540:	83 c4 10             	add    $0x10,%esp
    ipc_send(envid, r, 0, 0);
  800543:	6a 00                	push   $0x0
  800545:	6a 00                	push   $0x0
  800547:	53                   	push   %ebx
  800548:	ff 75 08             	pushl  0x8(%ebp)
  80054b:	e8 9f 17 00 00       	call   801cef <ipc_send>
}
  800550:	8b 5d fc             	mov    0xfffffffc(%ebp),%ebx
  800553:	c9                   	leave  
  800554:	c3                   	ret    

00800555 <process_timer>:

static void
process_timer(envid_t envid) {
  800555:	55                   	push   %ebp
  800556:	89 e5                	mov    %esp,%ebp
  800558:	56                   	push   %esi
  800559:	53                   	push   %ebx
  80055a:	8b 75 08             	mov    0x8(%ebp),%esi
    uint32_t start, now, to;

    if (envid != timer_envid) {
  80055d:	3b 35 04 84 81 00    	cmp    0x818404,%esi
  800563:	74 10                	je     800575 <process_timer+0x20>
	cprintf("NS: received timer interrupt from envid %x not timer env\n", envid);
  800565:	83 ec 08             	sub    $0x8,%esp
  800568:	56                   	push   %esi
  800569:	68 a8 1a 81 00       	push   $0x811aa8
  80056e:	e8 49 06 00 00       	call   800bbc <cprintf>
	return;
  800573:	eb 25                	jmp    80059a <process_timer+0x45>
    }

    start = sys_time_msec();
  800575:	e8 8d 12 00 00       	call   801807 <sys_time_msec>
  80057a:	89 c3                	mov    %eax,%ebx
    thread_yield();
  80057c:	e8 f6 d1 00 00       	call   80d777 <thread_yield>
    now = sys_time_msec();
  800581:	e8 81 12 00 00       	call   801807 <sys_time_msec>

    to = TIMER_INTERVAL - (now - start);
  800586:	29 d8                	sub    %ebx,%eax
  800588:	ba fa 00 00 00       	mov    $0xfa,%edx
  80058d:	29 c2                	sub    %eax,%edx
    ipc_send(envid, to, 0, 0);
  80058f:	6a 00                	push   $0x0
  800591:	6a 00                	push   $0x0
  800593:	52                   	push   %edx
  800594:	56                   	push   %esi
  800595:	e8 55 17 00 00       	call   801cef <ipc_send>
}
  80059a:	8d 65 f8             	lea    0xfffffff8(%ebp),%esp
  80059d:	5b                   	pop    %ebx
  80059e:	5e                   	pop    %esi
  80059f:	c9                   	leave  
  8005a0:	c3                   	ret    

008005a1 <net_recv>:

static void
net_recv(envid_t envid, struct jif_pkt* pkt) {
  8005a1:	55                   	push   %ebp
  8005a2:	89 e5                	mov    %esp,%ebp
  8005a4:	53                   	push   %ebx
  8005a5:	83 ec 0c             	sub    $0xc,%esp
  8005a8:	8b 5d 0c             	mov    0xc(%ebp),%ebx
    jif_input(&nif, (void *)pkt);
  8005ab:	53                   	push   %ebx
  8005ac:	68 20 e6 b3 00       	push   $0xb3e620
  8005b1:	e8 e4 d4 00 00       	call   80da9a <jif_input>
    sys_page_unmap(0, (void*)pkt);
  8005b6:	83 c4 08             	add    $0x8,%esp
  8005b9:	53                   	push   %ebx
  8005ba:	6a 00                	push   $0x0
  8005bc:	e8 56 10 00 00       	call   801617 <sys_page_unmap>
}
  8005c1:	8b 5d fc             	mov    0xfffffffc(%ebp),%ebx
  8005c4:	c9                   	leave  
  8005c5:	c3                   	ret    

008005c6 <serve_thread>:

struct st_args {
	int32_t req;
	uint32_t whom;
	void *va;
};

static void
serve_thread(uint32_t a) {
  8005c6:	55                   	push   %ebp
  8005c7:	89 e5                	mov    %esp,%ebp
  8005c9:	53                   	push   %ebx
  8005ca:	83 ec 04             	sub    $0x4,%esp
	struct st_args *args = (struct st_args *)a;
  8005cd:	8b 5d 08             	mov    0x8(%ebp),%ebx

	switch (args->req) {
  8005d0:	83 3b 0a             	cmpl   $0xa,(%ebx)
  8005d3:	0f 87 d3 00 00 00    	ja     8006ac <serve_thread+0xe6>
  8005d9:	8b 03                	mov    (%ebx),%eax
  8005db:	ff 24 85 64 1b 81 00 	jmp    *0x811b64(,%eax,4)
	  case NSREQ_ACCEPT:
		serve_accept(args->whom, (struct Nsreq_accept*)args->va);
  8005e2:	83 ec 08             	sub    $0x8,%esp
  8005e5:	ff 73 08             	pushl  0x8(%ebx)
  8005e8:	ff 73 04             	pushl  0x4(%ebx)
  8005eb:	e8 e4 fc ff ff       	call   8002d4 <serve_accept>
		break;
  8005f0:	83 c4 10             	add    $0x10,%esp
  8005f3:	e9 c9 00 00 00       	jmp    8006c1 <serve_thread+0xfb>
	  case NSREQ_BIND:
		serve_bind(args->whom, (struct Nsreq_bind*)args->va);
  8005f8:	83 ec 08             	sub    $0x8,%esp
  8005fb:	ff 73 08             	pushl  0x8(%ebx)
  8005fe:	ff 73 04             	pushl  0x4(%ebx)
  800601:	e8 3d fd ff ff       	call   800343 <serve_bind>
		break;
  800606:	83 c4 10             	add    $0x10,%esp
  800609:	e9 b3 00 00 00       	jmp    8006c1 <serve_thread+0xfb>
	  case NSREQ_SHUTDOWN:
		serve_shutdown(args->whom, (struct Nsreq_shutdown*)args->va);
  80060e:	83 ec 08             	sub    $0x8,%esp
  800611:	ff 73 08             	pushl  0x8(%ebx)
  800614:	ff 73 04             	pushl  0x4(%ebx)
  800617:	e8 6a fd ff ff       	call   800386 <serve_shutdown>
		break;
  80061c:	83 c4 10             	add    $0x10,%esp
  80061f:	e9 9d 00 00 00       	jmp    8006c1 <serve_thread+0xfb>
	  case NSREQ_CLOSE:
		serve_close(args->whom, (struct Nsreq_close*)args->va);
  800624:	83 ec 08             	sub    $0x8,%esp
  800627:	ff 73 08             	pushl  0x8(%ebx)
  80062a:	ff 73 04             	pushl  0x4(%ebx)
  80062d:	e8 93 fd ff ff       	call   8003c5 <serve_close>
		break;
  800632:	83 c4 10             	add    $0x10,%esp
  800635:	e9 87 00 00 00       	jmp    8006c1 <serve_thread+0xfb>
	  case NSREQ_CONNECT:
		serve_connect(args->whom, (struct Nsreq_connect*)args->va);
  80063a:	83 ec 08             	sub    $0x8,%esp
  80063d:	ff 73 08             	pushl  0x8(%ebx)
  800640:	ff 73 04             	pushl  0x4(%ebx)
  800643:	e8 b9 fd ff ff       	call   800401 <serve_connect>
		break;
  800648:	83 c4 10             	add    $0x10,%esp
  80064b:	eb 74                	jmp    8006c1 <serve_thread+0xfb>
	  case NSREQ_LISTEN:
		serve_listen(args->whom, (struct Nsreq_listen*)args->va);
  80064d:	83 ec 08             	sub    $0x8,%esp
  800650:	ff 73 08             	pushl  0x8(%ebx)
  800653:	ff 73 04             	pushl  0x4(%ebx)
  800656:	e8 e9 fd ff ff       	call   800444 <serve_listen>
		break;
  80065b:	83 c4 10             	add    $0x10,%esp
  80065e:	eb 61                	jmp    8006c1 <serve_thread+0xfb>
	  case NSREQ_RECV:
		serve_recv(args->whom, (struct Nsreq_recv*)args->va);
  800660:	83 ec 08             	sub    $0x8,%esp
  800663:	ff 73 08             	pushl  0x8(%ebx)
  800666:	ff 73 04             	pushl  0x4(%ebx)
  800669:	e8 15 fe ff ff       	call   800483 <serve_recv>
		break;
  80066e:	83 c4 10             	add    $0x10,%esp
  800671:	eb 4e                	jmp    8006c1 <serve_thread+0xfb>
	  case NSREQ_SEND:
		serve_send(args->whom, (struct Nsreq_send*)args->va);
  800673:	83 ec 08             	sub    $0x8,%esp
  800676:	ff 73 08             	pushl  0x8(%ebx)
  800679:	ff 73 04             	pushl  0x4(%ebx)
  80067c:	e8 4c fe ff ff       	call   8004cd <serve_send>
		break;
  800681:	83 c4 10             	add    $0x10,%esp
  800684:	eb 3b                	jmp    8006c1 <serve_thread+0xfb>
	  case NSREQ_SOCKET:
		serve_socket(args->whom, (struct Nsreq_socket*)args->va);
  800686:	83 ec 08             	sub    $0x8,%esp
  800689:	ff 73 08             	pushl  0x8(%ebx)
  80068c:	ff 73 04             	pushl  0x4(%ebx)
  80068f:	e8 7f fe ff ff       	call   800513 <serve_socket>
		break;
  800694:	83 c4 10             	add    $0x10,%esp
  800697:	eb 28                	jmp    8006c1 <serve_thread+0xfb>
	  case NSREQ_INPUT:
		net_recv(args->whom, (struct jif_pkt*)args->va);
  800699:	83 ec 08             	sub    $0x8,%esp
  80069c:	ff 73 08             	pushl  0x8(%ebx)
  80069f:	ff 73 04             	pushl  0x4(%ebx)
  8006a2:	e8 fa fe ff ff       	call   8005a1 <net_recv>
		break;
  8006a7:	83 c4 10             	add    $0x10,%esp
  8006aa:	eb 15                	jmp    8006c1 <serve_thread+0xfb>
	  default:
		cprintf("Invalid request code %d from %08x\n", args->whom, args->req);
  8006ac:	83 ec 04             	sub    $0x4,%esp
  8006af:	ff 33                	pushl  (%ebx)
  8006b1:	ff 73 04             	pushl  0x4(%ebx)
  8006b4:	68 e4 1a 81 00       	push   $0x811ae4
  8006b9:	e8 fe 04 00 00       	call   800bbc <cprintf>
		break;
  8006be:	83 c4 10             	add    $0x10,%esp
	}

	put_buffer(args->va);
  8006c1:	ff 73 08             	pushl  0x8(%ebx)
  8006c4:	e8 e0 f9 ff ff       	call   8000a9 <put_buffer>
	sys_page_unmap(0, (void*) args->va);
  8006c9:	83 ec 04             	sub    $0x4,%esp
  8006cc:	ff 73 08             	pushl  0x8(%ebx)
  8006cf:	6a 00                	push   $0x0
  8006d1:	e8 41 0f 00 00       	call   801617 <sys_page_unmap>
	free(args);
  8006d6:	89 1c 24             	mov    %ebx,(%esp)
  8006d9:	e8 87 24 00 00       	call   802b65 <free>
}
  8006de:	8b 5d fc             	mov    0xfffffffc(%ebp),%ebx
  8006e1:	c9                   	leave  
  8006e2:	c3                   	ret    

008006e3 <serve>:

void
serve(void) {
  8006e3:	55                   	push   %ebp
  8006e4:	89 e5                	mov    %esp,%ebp
  8006e6:	56                   	push   %esi
  8006e7:	53                   	push   %ebx
  8006e8:	83 ec 10             	sub    $0x10,%esp
	int32_t req;
	uint32_t whom;
	int perm;
	void *va;
	
	while (1) {
		perm = 0;
  8006eb:	c7 45 f4 00 00 00 00 	movl   $0x0,0xfffffff4(%ebp)
		va = get_buffer();
  8006f2:	e8 66 f9 ff ff       	call   80005d <get_buffer>
  8006f7:	89 c3                	mov    %eax,%ebx
		req = ipc_recv((int32_t *) &whom, (void *) va, &perm);
  8006f9:	83 ec 04             	sub    $0x4,%esp
  8006fc:	8d 45 f4             	lea    0xfffffff4(%ebp),%eax
  8006ff:	50                   	push   %eax
  800700:	53                   	push   %ebx
  800701:	8d 45 f0             	lea    0xfffffff0(%ebp),%eax
  800704:	50                   	push   %eax
  800705:	e8 82 15 00 00       	call   801c8c <ipc_recv>
  80070a:	89 c6                	mov    %eax,%esi
		if (debug) {
  80070c:	83 c4 10             	add    $0x10,%esp
			cprintf("ns req %d from %08x\n", req, whom);
		}

		// first take care of requests that do not contain an argument page
		switch (req) {
  80070f:	83 f8 0c             	cmp    $0xc,%eax
  800712:	75 16                	jne    80072a <serve+0x47>
		  case NSREQ_TIMER:
			process_timer(whom);
  800714:	83 ec 0c             	sub    $0xc,%esp
  800717:	ff 75 f0             	pushl  0xfffffff0(%ebp)
  80071a:	e8 36 fe ff ff       	call   800555 <process_timer>
			put_buffer(va);
  80071f:	53                   	push   %ebx
  800720:	e8 84 f9 ff ff       	call   8000a9 <put_buffer>
			continue;
  800725:	83 c4 14             	add    $0x14,%esp
  800728:	eb c1                	jmp    8006eb <serve+0x8>
		  default:
			break;
		}

		// All remaining requests must contain an argument page
		if (!(perm & PTE_P)) {
  80072a:	f6 45 f4 01          	testb  $0x1,0xfffffff4(%ebp)
  80072e:	75 15                	jne    800745 <serve+0x62>
			cprintf("Invalid request from %08x: no argument page\n", whom);
  800730:	83 ec 08             	sub    $0x8,%esp
  800733:	ff 75 f0             	pushl  0xfffffff0(%ebp)
  800736:	68 08 1b 81 00       	push   $0x811b08
  80073b:	e8 7c 04 00 00       	call   800bbc <cprintf>
			continue; // just leave it hanging...
  800740:	83 c4 10             	add    $0x10,%esp
  800743:	eb a6                	jmp    8006eb <serve+0x8>
		}

		// Since some lwIP socket calls will block, create a thread and
		// process the rest of the request in the thread.
		struct st_args *args = malloc(sizeof(struct st_args));
  800745:	83 ec 0c             	sub    $0xc,%esp
  800748:	6a 0c                	push   $0xc
  80074a:	e8 90 22 00 00       	call   8029df <malloc>
  80074f:	89 c2                	mov    %eax,%edx
		if (!args)
  800751:	83 c4 10             	add    $0x10,%esp
  800754:	85 c0                	test   %eax,%eax
  800756:	75 17                	jne    80076f <serve+0x8c>
			panic("could not allocate thread args structure");
  800758:	83 ec 04             	sub    $0x4,%esp
  80075b:	68 38 1b 81 00       	push   $0x811b38
  800760:	68 5f 01 00 00       	push   $0x15f
  800765:	68 34 19 81 00       	push   $0x811934
  80076a:	e8 5d 03 00 00       	call   800acc <_panic>

		args->req = req;
  80076f:	89 30                	mov    %esi,(%eax)
		args->whom = whom;
  800771:	8b 45 f0             	mov    0xfffffff0(%ebp),%eax
  800774:	89 42 04             	mov    %eax,0x4(%edx)
		args->va = va;
  800777:	89 5a 08             	mov    %ebx,0x8(%edx)

		thread_create(0, "serve_thread", serve_thread, (uint32_t)args);
  80077a:	52                   	push   %edx
  80077b:	68 c6 05 80 00       	push   $0x8005c6
  800780:	68 eb 19 81 00       	push   $0x8119eb
  800785:	6a 00                	push   $0x0
  800787:	e8 42 ce 00 00       	call   80d5ce <thread_create>
		thread_yield(); // let the thread created run
  80078c:	e8 e6 cf 00 00       	call   80d777 <thread_yield>
  800791:	83 c4 10             	add    $0x10,%esp
  800794:	e9 52 ff ff ff       	jmp    8006eb <serve+0x8>

00800799 <tmain>:
	}
}

static void
tmain(uint32_t arg) {
  800799:	55                   	push   %ebp
  80079a:	89 e5                	mov    %esp,%ebp
  80079c:	83 ec 14             	sub    $0x14,%esp
	serve_init(inet_addr(IP),
  80079f:	68 f8 19 81 00       	push   $0x8119f8
  8007a4:	e8 47 9c 00 00       	call   80a3f0 <inet_addr>
  8007a9:	83 c4 0c             	add    $0xc,%esp
  8007ac:	50                   	push   %eax
  8007ad:	83 ec 04             	sub    $0x4,%esp
  8007b0:	68 01 1a 81 00       	push   $0x811a01
  8007b5:	e8 36 9c 00 00       	call   80a3f0 <inet_addr>
  8007ba:	83 c4 08             	add    $0x8,%esp
  8007bd:	50                   	push   %eax
  8007be:	68 0f 1a 81 00       	push   $0x811a0f
  8007c3:	e8 28 9c 00 00       	call   80a3f0 <inet_addr>
  8007c8:	89 04 24             	mov    %eax,(%esp)
  8007cb:	e8 f8 f9 ff ff       	call   8001c8 <serve_init>
		   inet_addr(MASK),
		   inet_addr(DEFAULT));
	serve();
  8007d0:	e8 0e ff ff ff       	call   8006e3 <serve>
}
  8007d5:	c9                   	leave  
  8007d6:	c3                   	ret    

008007d7 <umain>:

void
umain(void)
{
  8007d7:	55                   	push   %ebp
  8007d8:	89 e5                	mov    %esp,%ebp
  8007da:	53                   	push   %ebx
  8007db:	83 ec 04             	sub    $0x4,%esp
	envid_t ns_envid = sys_getenvid();
  8007de:	e8 71 0d 00 00       	call   801554 <sys_getenvid>
  8007e3:	89 c3                	mov    %eax,%ebx

        binaryname = "ns";
  8007e5:	c7 05 00 80 81 00 10 	movl   $0x812310,0x818000
  8007ec:	23 81 00 

	// fork off the timer thread which will send us periodic messages
	timer_envid = fork();
  8007ef:	e8 0e 13 00 00       	call   801b02 <fork>
  8007f4:	a3 04 84 81 00       	mov    %eax,0x818404
	if (timer_envid < 0)
  8007f9:	85 c0                	test   %eax,%eax
  8007fb:	79 17                	jns    800814 <umain+0x3d>
		panic("error forking");
  8007fd:	83 ec 04             	sub    $0x4,%esp
  800800:	68 19 1a 81 00       	push   $0x811a19
  800805:	68 7c 01 00 00       	push   $0x17c
  80080a:	68 34 19 81 00       	push   $0x811934
  80080f:	e8 b8 02 00 00       	call   800acc <_panic>
	else if (timer_envid == 0) {
  800814:	83 3d 04 84 81 00 00 	cmpl   $0x0,0x818404
  80081b:	75 13                	jne    800830 <umain+0x59>
		timer(ns_envid, TIMER_INTERVAL);
  80081d:	83 ec 08             	sub    $0x8,%esp
  800820:	68 fa 00 00 00       	push   $0xfa
  800825:	53                   	push   %ebx
  800826:	e8 99 00 00 00       	call   8008c4 <timer>
		return;
  80082b:	e9 8f 00 00 00       	jmp    8008bf <umain+0xe8>
	}

	// fork off the input thread which will poll the NIC driver for input
	// packets
	input_envid = fork();
  800830:	e8 cd 12 00 00       	call   801b02 <fork>
  800835:	a3 08 84 81 00       	mov    %eax,0x818408
	if (input_envid < 0)
  80083a:	85 c0                	test   %eax,%eax
  80083c:	79 17                	jns    800855 <umain+0x7e>
		panic("error forking");
  80083e:	83 ec 04             	sub    $0x4,%esp
  800841:	68 19 1a 81 00       	push   $0x811a19
  800846:	68 86 01 00 00       	push   $0x186
  80084b:	68 34 19 81 00       	push   $0x811934
  800850:	e8 77 02 00 00       	call   800acc <_panic>
	else if (input_envid == 0) {
  800855:	83 3d 08 84 81 00 00 	cmpl   $0x0,0x818408
  80085c:	75 0b                	jne    800869 <umain+0x92>
		input(ns_envid);
  80085e:	83 ec 0c             	sub    $0xc,%esp
  800861:	53                   	push   %ebx
  800862:	e8 d5 00 00 00       	call   80093c <input>
		return;
  800867:	eb 56                	jmp    8008bf <umain+0xe8>
	}

	// fork off the output thread that will send the packets to the NIC
	// driver
	output_envid = fork();
  800869:	e8 94 12 00 00       	call   801b02 <fork>
  80086e:	a3 0c 84 81 00       	mov    %eax,0x81840c
	if (output_envid < 0)
  800873:	85 c0                	test   %eax,%eax
  800875:	79 17                	jns    80088e <umain+0xb7>
		panic("error forking");
  800877:	83 ec 04             	sub    $0x4,%esp
  80087a:	68 19 1a 81 00       	push   $0x811a19
  80087f:	68 90 01 00 00       	push   $0x190
  800884:	68 34 19 81 00       	push   $0x811934
  800889:	e8 3e 02 00 00       	call   800acc <_panic>
	else if (output_envid == 0) {
  80088e:	83 3d 0c 84 81 00 00 	cmpl   $0x0,0x81840c
  800895:	75 0b                	jne    8008a2 <umain+0xcb>
		output(ns_envid);
  800897:	83 ec 0c             	sub    $0xc,%esp
  80089a:	53                   	push   %ebx
  80089b:	e8 60 01 00 00       	call   800a00 <output>
		return;
  8008a0:	eb 1d                	jmp    8008bf <umain+0xe8>
	}

	// lwIP requires a user threading library; start the library and jump
	// into a thread to continue initialization. 
	thread_init();
  8008a2:	e8 c5 cb 00 00       	call   80d46c <thread_init>
	thread_create(0, "main", tmain, 0);
  8008a7:	6a 00                	push   $0x0
  8008a9:	68 99 07 80 00       	push   $0x800799
  8008ae:	68 27 1a 81 00       	push   $0x811a27
  8008b3:	6a 00                	push   $0x0
  8008b5:	e8 14 cd 00 00       	call   80d5ce <thread_create>
	thread_yield();
  8008ba:	e8 b8 ce 00 00       	call   80d777 <thread_yield>
	// never coming here!
}
  8008bf:	8b 5d fc             	mov    0xfffffffc(%ebp),%ebx
  8008c2:	c9                   	leave  
  8008c3:	c3                   	ret    

008008c4 <timer>:
#include "ns.h"

void
timer(envid_t ns_envid, uint32_t initial_to) {
  8008c4:	55                   	push   %ebp
  8008c5:	89 e5                	mov    %esp,%ebp
  8008c7:	56                   	push   %esi
  8008c8:	53                   	push   %ebx
  8008c9:	83 ec 10             	sub    $0x10,%esp
  8008cc:	8b 75 08             	mov    0x8(%ebp),%esi
	uint32_t stop = sys_time_msec() + initial_to;
  8008cf:	e8 33 0f 00 00       	call   801807 <sys_time_msec>
  8008d4:	89 c3                	mov    %eax,%ebx
  8008d6:	03 5d 0c             	add    0xc(%ebp),%ebx

	binaryname = "ns_timer";
  8008d9:	c7 05 00 80 81 00 90 	movl   $0x811b90,0x818000
  8008e0:	1b 81 00 

	while (1) {
		while(sys_time_msec() < stop) {
  8008e3:	eb 05                	jmp    8008ea <timer+0x26>
			sys_yield();
  8008e5:	e8 89 0c 00 00       	call   801573 <sys_yield>
  8008ea:	e8 18 0f 00 00       	call   801807 <sys_time_msec>
  8008ef:	39 d8                	cmp    %ebx,%eax
  8008f1:	72 f2                	jb     8008e5 <timer+0x21>
		}

		ipc_send(ns_envid, NSREQ_TIMER, 0, 0);
  8008f3:	6a 00                	push   $0x0
  8008f5:	6a 00                	push   $0x0
  8008f7:	6a 0c                	push   $0xc
  8008f9:	56                   	push   %esi
  8008fa:	e8 f0 13 00 00       	call   801cef <ipc_send>

		while (1) {
  8008ff:	83 c4 10             	add    $0x10,%esp
			uint32_t to, whom;
			to = ipc_recv((int32_t *) &whom, 0, 0);
  800902:	83 ec 04             	sub    $0x4,%esp
  800905:	6a 00                	push   $0x0
  800907:	6a 00                	push   $0x0
  800909:	8d 45 f4             	lea    0xfffffff4(%ebp),%eax
  80090c:	50                   	push   %eax
  80090d:	e8 7a 13 00 00       	call   801c8c <ipc_recv>
  800912:	89 c3                	mov    %eax,%ebx

			if (whom != ns_envid) {
  800914:	83 c4 10             	add    $0x10,%esp
  800917:	3b 75 f4             	cmp    0xfffffff4(%ebp),%esi
  80091a:	74 15                	je     800931 <timer+0x6d>
				cprintf("NS TIMER: timer thread got IPC message from env %x not NS\n", whom);
  80091c:	83 ec 08             	sub    $0x8,%esp
  80091f:	ff 75 f4             	pushl  0xfffffff4(%ebp)
  800922:	68 9c 1b 81 00       	push   $0x811b9c
  800927:	e8 90 02 00 00       	call   800bbc <cprintf>
				continue;
  80092c:	83 c4 10             	add    $0x10,%esp
  80092f:	eb d1                	jmp    800902 <timer+0x3e>
			}

			stop = sys_time_msec() + to;
  800931:	e8 d1 0e 00 00       	call   801807 <sys_time_msec>
  800936:	8d 1c 18             	lea    (%eax,%ebx,1),%ebx
			break;
  800939:	eb af                	jmp    8008ea <timer+0x26>
	...

0080093c <input>:
#include "kern/e100.h"

void
input(envid_t ns_envid)
{
  80093c:	55                   	push   %ebp
  80093d:	89 e5                	mov    %esp,%ebp
  80093f:	57                   	push   %edi
  800940:	56                   	push   %esi
  800941:	53                   	push   %ebx
  800942:	83 ec 0c             	sub    $0xc,%esp
  800945:	8b 7d 08             	mov    0x8(%ebp),%edi
	binaryname = "ns_input";
  800948:	c7 05 00 80 81 00 d7 	movl   $0x811bd7,0x818000
  80094f:	1b 81 00 

	// LAB 6: Your code here:
	// 	- read a packet from the device driver
	//	- send it to the network server
	int r;
	//struct jif_pkt* packet = (struct jif_pkt*) UTEMP;

        // Challenge
        // Allocate pages for which the RU can write to
        int curr_buffer = 0;
  800952:	be 00 00 00 00       	mov    $0x0,%esi
	struct jif_pkt* packet;
        int *packetidx = 0;
        struct Page *packetpage;
        int pidx;
        for (pidx = 0; pidx < DMA_RU_SIZE; pidx++) {
  800957:	bb 00 00 00 00       	mov    $0x0,%ebx
	  if ((r = sys_page_alloc(sys_getenvid(), UTEMP + (pidx * PGSIZE), PTE_P | PTE_W | PTE_U)) < 0) {
  80095c:	83 ec 04             	sub    $0x4,%esp
  80095f:	6a 07                	push   $0x7
  800961:	89 d8                	mov    %ebx,%eax
  800963:	c1 e0 0c             	shl    $0xc,%eax
  800966:	05 00 00 40 00       	add    $0x400000,%eax
  80096b:	50                   	push   %eax
  80096c:	83 ec 04             	sub    $0x4,%esp
  80096f:	e8 e0 0b 00 00       	call   801554 <sys_getenvid>
  800974:	89 04 24             	mov    %eax,(%esp)
  800977:	e8 16 0c 00 00       	call   801592 <sys_page_alloc>
  80097c:	83 c4 10             	add    $0x10,%esp
  80097f:	85 c0                	test   %eax,%eax
  800981:	79 12                	jns    800995 <input+0x59>
            // sys_page_alloc memsets to zero
	    panic("input: %e", r);
  800983:	50                   	push   %eax
  800984:	68 e0 1b 81 00       	push   $0x811be0
  800989:	6a 19                	push   $0x19
  80098b:	68 ea 1b 81 00       	push   $0x811bea
  800990:	e8 37 01 00 00       	call   800acc <_panic>
  800995:	43                   	inc    %ebx
  800996:	83 fb 02             	cmp    $0x2,%ebx
  800999:	7e c1                	jle    80095c <input+0x20>
	  }
        }

        // Tell the kernel about the pages that we just made
        if ((r = sys_map_receive_buffers((char *)UTEMP)) < 0) {
  80099b:	83 ec 0c             	sub    $0xc,%esp
  80099e:	68 00 00 40 00       	push   $0x400000
  8009a3:	e8 7e 0e 00 00       	call   801826 <sys_map_receive_buffers>
  8009a8:	83 c4 10             	add    $0x10,%esp
  8009ab:	85 c0                	test   %eax,%eax
  8009ad:	79 12                	jns    8009c1 <input+0x85>
          panic("input.c; failed to tell e100 about receive buffers: %e", r);
  8009af:	50                   	push   %eax
  8009b0:	68 f8 1b 81 00       	push   $0x811bf8
  8009b5:	6a 1f                	push   $0x1f
  8009b7:	68 ea 1b 81 00       	push   $0x811bea
  8009bc:	e8 0b 01 00 00       	call   800acc <_panic>
        }

	while(1) {
          // Keep checking if the current page has any packets
	  struct jif_pkt* packet = (struct jif_pkt*) (UTEMP + (curr_buffer * PGSIZE));
  8009c1:	89 f0                	mov    %esi,%eax
  8009c3:	c1 e0 0c             	shl    $0xc,%eax
  8009c6:	8d 98 00 00 40 00    	lea    0x400000(%eax),%ebx
          if ((r = sys_receive_packet_zerocopy(&packet->jp_len)) < 0) {
  8009cc:	83 ec 0c             	sub    $0xc,%esp
  8009cf:	53                   	push   %ebx
  8009d0:	e8 92 0e 00 00       	call   801867 <sys_receive_packet_zerocopy>
  8009d5:	83 c4 10             	add    $0x10,%esp
  8009d8:	85 c0                	test   %eax,%eax
  8009da:	79 07                	jns    8009e3 <input+0xa7>
            sys_yield();
  8009dc:	e8 92 0b 00 00       	call   801573 <sys_yield>
  8009e1:	eb de                	jmp    8009c1 <input+0x85>
          } else {
	    ipc_send(ns_envid, NSREQ_INPUT, packet, PTE_P | PTE_W | PTE_U);
  8009e3:	6a 07                	push   $0x7
  8009e5:	53                   	push   %ebx
  8009e6:	6a 0a                	push   $0xa
  8009e8:	57                   	push   %edi
  8009e9:	e8 01 13 00 00       	call   801cef <ipc_send>
            curr_buffer = (curr_buffer + 1) % DMA_RU_SIZE;
  8009ee:	8d 46 01             	lea    0x1(%esi),%eax
  8009f1:	b9 03 00 00 00       	mov    $0x3,%ecx
  8009f6:	99                   	cltd   
  8009f7:	f7 f9                	idiv   %ecx
  8009f9:	89 d6                	mov    %edx,%esi
  8009fb:	83 c4 10             	add    $0x10,%esp
  8009fe:	eb c1                	jmp    8009c1 <input+0x85>

00800a00 <output>:


void
output(envid_t ns_envid)
{
  800a00:	55                   	push   %ebp
  800a01:	89 e5                	mov    %esp,%ebp
  800a03:	56                   	push   %esi
  800a04:	53                   	push   %ebx
  800a05:	83 ec 10             	sub    $0x10,%esp
  800a08:	8b 75 08             	mov    0x8(%ebp),%esi
  int r;
  envid_t fromenv;
  void *pg  = (void *)PKTMAP;
  800a0b:	bb 00 00 00 10       	mov    $0x10000000,%ebx
  struct jif_pkt *packet;

	binaryname = "ns_output";
  800a10:	c7 05 00 80 81 00 2f 	movl   $0x811c2f,0x818000
  800a17:	1c 81 00 
	// LAB 6: Your code here:
	// 	- read a packet from the network server
	//	- send the packet to the device driver

  while(1) {
    if ((r = ipc_recv(&fromenv, pg, NULL)) != NSREQ_OUTPUT) {
  800a1a:	83 ec 04             	sub    $0x4,%esp
  800a1d:	6a 00                	push   $0x0
  800a1f:	53                   	push   %ebx
  800a20:	8d 45 f4             	lea    0xfffffff4(%ebp),%eax
  800a23:	50                   	push   %eax
  800a24:	e8 63 12 00 00       	call   801c8c <ipc_recv>
  800a29:	83 c4 10             	add    $0x10,%esp
  800a2c:	83 f8 0b             	cmp    $0xb,%eax
  800a2f:	74 12                	je     800a43 <output+0x43>
      panic("output.c error: %d", r);
  800a31:	50                   	push   %eax
  800a32:	68 39 1c 81 00       	push   $0x811c39
  800a37:	6a 15                	push   $0x15
  800a39:	68 4c 1c 81 00       	push   $0x811c4c
  800a3e:	e8 89 00 00 00       	call   800acc <_panic>
    }
    if (ns_envid != fromenv) {
  800a43:	3b 75 f4             	cmp    0xfffffff4(%ebp),%esi
  800a46:	74 14                	je     800a5c <output+0x5c>
      panic("output.c didn't receive from right env");
  800a48:	83 ec 04             	sub    $0x4,%esp
  800a4b:	68 5c 1c 81 00       	push   $0x811c5c
  800a50:	6a 18                	push   $0x18
  800a52:	68 4c 1c 81 00       	push   $0x811c4c
  800a57:	e8 70 00 00 00       	call   800acc <_panic>
    }
  
    packet = (struct jif_pkt*) pg;
    sys_transmit_packet(packet->jp_data, packet->jp_len);
  800a5c:	83 ec 08             	sub    $0x8,%esp
  800a5f:	ff 33                	pushl  (%ebx)
  800a61:	8d 43 04             	lea    0x4(%ebx),%eax
  800a64:	50                   	push   %eax
  800a65:	e8 19 0d 00 00       	call   801783 <sys_transmit_packet>
  800a6a:	83 c4 10             	add    $0x10,%esp
  800a6d:	eb ab                	jmp    800a1a <output+0x1a>
	...

00800a70 <libmain>:
char *binaryname = "(PROGRAM NAME UNKNOWN)";

void
libmain(int argc, char **argv)
{
  800a70:	55                   	push   %ebp
  800a71:	89 e5                	mov    %esp,%ebp
  800a73:	56                   	push   %esi
  800a74:	53                   	push   %ebx
  800a75:	8b 75 08             	mov    0x8(%ebp),%esi
  800a78:	8b 5d 0c             	mov    0xc(%ebp),%ebx
	// set env to point at our env structure in envs[].
	// LAB 3: Your code here.
        // seanyliu
	//env = 0;
        env = &envs[ENVX(sys_getenvid())];
  800a7b:	e8 d4 0a 00 00       	call   801554 <sys_getenvid>
  800a80:	25 ff 03 00 00       	and    $0x3ff,%eax
  800a85:	c1 e0 07             	shl    $0x7,%eax
  800a88:	05 00 00 c0 ee       	add    $0xeec00000,%eax
  800a8d:	a3 54 e6 b3 00       	mov    %eax,0xb3e654

	// save the name of the program so that panic() can use it
	if (argc > 0)
  800a92:	85 f6                	test   %esi,%esi
  800a94:	7e 07                	jle    800a9d <libmain+0x2d>
		binaryname = argv[0];
  800a96:	8b 03                	mov    (%ebx),%eax
  800a98:	a3 00 80 81 00       	mov    %eax,0x818000

	// call user main routine
	umain(argc, argv);
  800a9d:	83 ec 08             	sub    $0x8,%esp
  800aa0:	53                   	push   %ebx
  800aa1:	56                   	push   %esi
  800aa2:	e8 30 fd ff ff       	call   8007d7 <umain>

	// exit gracefully
	exit();
  800aa7:	e8 08 00 00 00       	call   800ab4 <exit>
}
  800aac:	8d 65 f8             	lea    0xfffffff8(%ebp),%esp
  800aaf:	5b                   	pop    %ebx
  800ab0:	5e                   	pop    %esi
  800ab1:	c9                   	leave  
  800ab2:	c3                   	ret    
	...

00800ab4 <exit>:
#include <inc/lib.h>

void
exit(void)
{
  800ab4:	55                   	push   %ebp
  800ab5:	89 e5                	mov    %esp,%ebp
  800ab7:	83 ec 08             	sub    $0x8,%esp
	close_all();
  800aba:	e8 59 14 00 00       	call   801f18 <close_all>
	sys_env_destroy(0);
  800abf:	83 ec 0c             	sub    $0xc,%esp
  800ac2:	6a 00                	push   $0x0
  800ac4:	e8 4a 0a 00 00       	call   801513 <sys_env_destroy>
}
  800ac9:	c9                   	leave  
  800aca:	c3                   	ret    
	...

00800acc <_panic>:
 * which causes JOS to enter the JOS kernel monitor.
 */
void
_panic(const char *file, int line, const char *fmt,...)
{
  800acc:	55                   	push   %ebp
  800acd:	89 e5                	mov    %esp,%ebp
  800acf:	53                   	push   %ebx
  800ad0:	83 ec 04             	sub    $0x4,%esp
	va_list ap;

	va_start(ap, fmt);
  800ad3:	8d 5d 14             	lea    0x14(%ebp),%ebx

	// Print the panic message
	if (argv0)
  800ad6:	83 3d 58 e6 b3 00 00 	cmpl   $0x0,0xb3e658
  800add:	74 16                	je     800af5 <_panic+0x29>
		cprintf("%s: ", argv0);
  800adf:	83 ec 08             	sub    $0x8,%esp
  800ae2:	ff 35 58 e6 b3 00    	pushl  0xb3e658
  800ae8:	68 9a 1c 81 00       	push   $0x811c9a
  800aed:	e8 ca 00 00 00       	call   800bbc <cprintf>
  800af2:	83 c4 10             	add    $0x10,%esp
	cprintf("user panic in %s at %s:%d: ", binaryname, file, line);
  800af5:	ff 75 0c             	pushl  0xc(%ebp)
  800af8:	ff 75 08             	pushl  0x8(%ebp)
  800afb:	ff 35 00 80 81 00    	pushl  0x818000
  800b01:	68 9f 1c 81 00       	push   $0x811c9f
  800b06:	e8 b1 00 00 00       	call   800bbc <cprintf>
	vcprintf(fmt, ap);
  800b0b:	83 c4 08             	add    $0x8,%esp
  800b0e:	53                   	push   %ebx
  800b0f:	ff 75 10             	pushl  0x10(%ebp)
  800b12:	e8 54 00 00 00       	call   800b6b <vcprintf>
	cprintf("\n");
  800b17:	c7 04 24 78 19 81 00 	movl   $0x811978,(%esp)
  800b1e:	e8 99 00 00 00       	call   800bbc <cprintf>

	// Cause a breakpoint exception
	while (1)
  800b23:	83 c4 10             	add    $0x10,%esp
		asm volatile("int3");
  800b26:	cc                   	int3   
  800b27:	eb fd                	jmp    800b26 <_panic+0x5a>
  800b29:	00 00                	add    %al,(%eax)
	...

00800b2c <putch>:


static void
putch(int ch, struct printbuf *b)
{
  800b2c:	55                   	push   %ebp
  800b2d:	89 e5                	mov    %esp,%ebp
  800b2f:	53                   	push   %ebx
  800b30:	83 ec 04             	sub    $0x4,%esp
  800b33:	8b 5d 0c             	mov    0xc(%ebp),%ebx
	b->buf[b->idx++] = ch;
  800b36:	8b 03                	mov    (%ebx),%eax
  800b38:	8b 55 08             	mov    0x8(%ebp),%edx
  800b3b:	88 54 18 08          	mov    %dl,0x8(%eax,%ebx,1)
  800b3f:	40                   	inc    %eax
  800b40:	89 03                	mov    %eax,(%ebx)
	if (b->idx == 256-1) {
  800b42:	3d ff 00 00 00       	cmp    $0xff,%eax
  800b47:	75 1a                	jne    800b63 <putch+0x37>
		sys_cputs(b->buf, b->idx);
  800b49:	83 ec 08             	sub    $0x8,%esp
  800b4c:	68 ff 00 00 00       	push   $0xff
  800b51:	8d 43 08             	lea    0x8(%ebx),%eax
  800b54:	50                   	push   %eax
  800b55:	e8 76 09 00 00       	call   8014d0 <sys_cputs>
		b->idx = 0;
  800b5a:	c7 03 00 00 00 00    	movl   $0x0,(%ebx)
  800b60:	83 c4 10             	add    $0x10,%esp
	}
	b->cnt++;
  800b63:	ff 43 04             	incl   0x4(%ebx)
}
  800b66:	8b 5d fc             	mov    0xfffffffc(%ebp),%ebx
  800b69:	c9                   	leave  
  800b6a:	c3                   	ret    

00800b6b <vcprintf>:

int
vcprintf(const char *fmt, va_list ap)
{
  800b6b:	55                   	push   %ebp
  800b6c:	89 e5                	mov    %esp,%ebp
  800b6e:	81 ec 18 01 00 00    	sub    $0x118,%esp
	struct printbuf b;

	b.idx = 0;
  800b74:	c7 85 e8 fe ff ff 00 	movl   $0x0,0xfffffee8(%ebp)
  800b7b:	00 00 00 
	b.cnt = 0;
  800b7e:	c7 85 ec fe ff ff 00 	movl   $0x0,0xfffffeec(%ebp)
  800b85:	00 00 00 
	vprintfmt((void*)putch, &b, fmt, ap);
  800b88:	ff 75 0c             	pushl  0xc(%ebp)
  800b8b:	ff 75 08             	pushl  0x8(%ebp)
  800b8e:	8d 85 e8 fe ff ff    	lea    0xfffffee8(%ebp),%eax
  800b94:	50                   	push   %eax
  800b95:	68 2c 0b 80 00       	push   $0x800b2c
  800b9a:	e8 4f 01 00 00       	call   800cee <vprintfmt>
	sys_cputs(b.buf, b.idx);
  800b9f:	83 c4 08             	add    $0x8,%esp
  800ba2:	ff b5 e8 fe ff ff    	pushl  0xfffffee8(%ebp)
  800ba8:	8d 85 f0 fe ff ff    	lea    0xfffffef0(%ebp),%eax
  800bae:	50                   	push   %eax
  800baf:	e8 1c 09 00 00       	call   8014d0 <sys_cputs>

	return b.cnt;
  800bb4:	8b 85 ec fe ff ff    	mov    0xfffffeec(%ebp),%eax
}
  800bba:	c9                   	leave  
  800bbb:	c3                   	ret    

00800bbc <cprintf>:

int
cprintf(const char *fmt, ...)
{
  800bbc:	55                   	push   %ebp
  800bbd:	89 e5                	mov    %esp,%ebp
  800bbf:	83 ec 10             	sub    $0x10,%esp
	va_list ap;
	int cnt;

	va_start(ap, fmt);
  800bc2:	8d 45 0c             	lea    0xc(%ebp),%eax
	cnt = vcprintf(fmt, ap);
  800bc5:	50                   	push   %eax
  800bc6:	ff 75 08             	pushl  0x8(%ebp)
  800bc9:	e8 9d ff ff ff       	call   800b6b <vcprintf>
	va_end(ap);

	return cnt;
}
  800bce:	c9                   	leave  
  800bcf:	c3                   	ret    

00800bd0 <printnum>:
 */
static void
printnum(void (*putch)(int, void*), void *putdat,
	 unsigned long long num, unsigned base, int width, int padc)
{
  800bd0:	55                   	push   %ebp
  800bd1:	89 e5                	mov    %esp,%ebp
  800bd3:	57                   	push   %edi
  800bd4:	56                   	push   %esi
  800bd5:	53                   	push   %ebx
  800bd6:	83 ec 0c             	sub    $0xc,%esp
  800bd9:	8b 75 10             	mov    0x10(%ebp),%esi
  800bdc:	8b 7d 14             	mov    0x14(%ebp),%edi
  800bdf:	8b 5d 1c             	mov    0x1c(%ebp),%ebx
	// first recursively print all preceding (more significant) digits
	if (num >= base) {
  800be2:	8b 45 18             	mov    0x18(%ebp),%eax
  800be5:	ba 00 00 00 00       	mov    $0x0,%edx
  800bea:	39 fa                	cmp    %edi,%edx
  800bec:	77 39                	ja     800c27 <printnum+0x57>
  800bee:	72 04                	jb     800bf4 <printnum+0x24>
  800bf0:	39 f0                	cmp    %esi,%eax
  800bf2:	77 33                	ja     800c27 <printnum+0x57>
		printnum(putch, putdat, num / base, base, width - 1, padc);
  800bf4:	83 ec 04             	sub    $0x4,%esp
  800bf7:	ff 75 20             	pushl  0x20(%ebp)
  800bfa:	8d 43 ff             	lea    0xffffffff(%ebx),%eax
  800bfd:	50                   	push   %eax
  800bfe:	ff 75 18             	pushl  0x18(%ebp)
  800c01:	8b 45 18             	mov    0x18(%ebp),%eax
  800c04:	ba 00 00 00 00       	mov    $0x0,%edx
  800c09:	52                   	push   %edx
  800c0a:	50                   	push   %eax
  800c0b:	57                   	push   %edi
  800c0c:	56                   	push   %esi
  800c0d:	e8 4e 0a 01 00       	call   811660 <__udivdi3>
  800c12:	83 c4 10             	add    $0x10,%esp
  800c15:	52                   	push   %edx
  800c16:	50                   	push   %eax
  800c17:	ff 75 0c             	pushl  0xc(%ebp)
  800c1a:	ff 75 08             	pushl  0x8(%ebp)
  800c1d:	e8 ae ff ff ff       	call   800bd0 <printnum>
  800c22:	83 c4 20             	add    $0x20,%esp
  800c25:	eb 19                	jmp    800c40 <printnum+0x70>
	} else {
		// print any needed pad characters before first digit
		while (--width > 0)
			putch(padc, putdat);
  800c27:	4b                   	dec    %ebx
  800c28:	85 db                	test   %ebx,%ebx
  800c2a:	7e 14                	jle    800c40 <printnum+0x70>
  800c2c:	83 ec 08             	sub    $0x8,%esp
  800c2f:	ff 75 0c             	pushl  0xc(%ebp)
  800c32:	ff 75 20             	pushl  0x20(%ebp)
  800c35:	ff 55 08             	call   *0x8(%ebp)
  800c38:	83 c4 10             	add    $0x10,%esp
  800c3b:	4b                   	dec    %ebx
  800c3c:	85 db                	test   %ebx,%ebx
  800c3e:	7f ec                	jg     800c2c <printnum+0x5c>
	}

	// then print this (the least significant) digit
	putch("0123456789abcdef"[num % base], putdat);
  800c40:	83 ec 08             	sub    $0x8,%esp
  800c43:	ff 75 0c             	pushl  0xc(%ebp)
  800c46:	8b 45 18             	mov    0x18(%ebp),%eax
  800c49:	ba 00 00 00 00       	mov    $0x0,%edx
  800c4e:	83 ec 04             	sub    $0x4,%esp
  800c51:	52                   	push   %edx
  800c52:	50                   	push   %eax
  800c53:	57                   	push   %edi
  800c54:	56                   	push   %esi
  800c55:	e8 12 0b 01 00       	call   81176c <__umoddi3>
  800c5a:	83 c4 14             	add    $0x14,%esp
  800c5d:	0f be 80 b5 1d 81 00 	movsbl 0x811db5(%eax),%eax
  800c64:	50                   	push   %eax
  800c65:	ff 55 08             	call   *0x8(%ebp)
}
  800c68:	8d 65 f4             	lea    0xfffffff4(%ebp),%esp
  800c6b:	5b                   	pop    %ebx
  800c6c:	5e                   	pop    %esi
  800c6d:	5f                   	pop    %edi
  800c6e:	c9                   	leave  
  800c6f:	c3                   	ret    

00800c70 <getuint>:

// Get an unsigned int of various possible sizes from a varargs list,
// depending on the lflag parameter.
static unsigned long long
getuint(va_list *ap, int lflag)
{
  800c70:	55                   	push   %ebp
  800c71:	89 e5                	mov    %esp,%ebp
  800c73:	8b 4d 08             	mov    0x8(%ebp),%ecx
  800c76:	8b 45 0c             	mov    0xc(%ebp),%eax
	if (lflag >= 2)
  800c79:	83 f8 01             	cmp    $0x1,%eax
  800c7c:	7e 0f                	jle    800c8d <getuint+0x1d>
		return va_arg(*ap, unsigned long long);
  800c7e:	8b 01                	mov    (%ecx),%eax
  800c80:	83 c0 08             	add    $0x8,%eax
  800c83:	89 01                	mov    %eax,(%ecx)
  800c85:	8b 50 fc             	mov    0xfffffffc(%eax),%edx
  800c88:	8b 40 f8             	mov    0xfffffff8(%eax),%eax
  800c8b:	eb 24                	jmp    800cb1 <getuint+0x41>
	else if (lflag)
  800c8d:	85 c0                	test   %eax,%eax
  800c8f:	74 11                	je     800ca2 <getuint+0x32>
		return va_arg(*ap, unsigned long);
  800c91:	8b 01                	mov    (%ecx),%eax
  800c93:	83 c0 04             	add    $0x4,%eax
  800c96:	89 01                	mov    %eax,(%ecx)
  800c98:	8b 40 fc             	mov    0xfffffffc(%eax),%eax
  800c9b:	ba 00 00 00 00       	mov    $0x0,%edx
  800ca0:	eb 0f                	jmp    800cb1 <getuint+0x41>
	else
		return va_arg(*ap, unsigned int);
  800ca2:	8b 01                	mov    (%ecx),%eax
  800ca4:	83 c0 04             	add    $0x4,%eax
  800ca7:	89 01                	mov    %eax,(%ecx)
  800ca9:	8b 40 fc             	mov    0xfffffffc(%eax),%eax
  800cac:	ba 00 00 00 00       	mov    $0x0,%edx
}
  800cb1:	c9                   	leave  
  800cb2:	c3                   	ret    

00800cb3 <getint>:

// Same as getuint but signed - can't use getuint
// because of sign extension
static long long
getint(va_list *ap, int lflag)
{
  800cb3:	55                   	push   %ebp
  800cb4:	89 e5                	mov    %esp,%ebp
  800cb6:	8b 55 08             	mov    0x8(%ebp),%edx
  800cb9:	8b 45 0c             	mov    0xc(%ebp),%eax
	if (lflag >= 2)
  800cbc:	83 f8 01             	cmp    $0x1,%eax
  800cbf:	7e 0f                	jle    800cd0 <getint+0x1d>
		return va_arg(*ap, long long);
  800cc1:	8b 02                	mov    (%edx),%eax
  800cc3:	83 c0 08             	add    $0x8,%eax
  800cc6:	89 02                	mov    %eax,(%edx)
  800cc8:	8b 50 fc             	mov    0xfffffffc(%eax),%edx
  800ccb:	8b 40 f8             	mov    0xfffffff8(%eax),%eax
  800cce:	eb 1c                	jmp    800cec <getint+0x39>
	else if (lflag)
  800cd0:	85 c0                	test   %eax,%eax
  800cd2:	74 0d                	je     800ce1 <getint+0x2e>
		return va_arg(*ap, long);
  800cd4:	8b 02                	mov    (%edx),%eax
  800cd6:	83 c0 04             	add    $0x4,%eax
  800cd9:	89 02                	mov    %eax,(%edx)
  800cdb:	8b 40 fc             	mov    0xfffffffc(%eax),%eax
  800cde:	99                   	cltd   
  800cdf:	eb 0b                	jmp    800cec <getint+0x39>
	else
		return va_arg(*ap, int);
  800ce1:	8b 02                	mov    (%edx),%eax
  800ce3:	83 c0 04             	add    $0x4,%eax
  800ce6:	89 02                	mov    %eax,(%edx)
  800ce8:	8b 40 fc             	mov    0xfffffffc(%eax),%eax
  800ceb:	99                   	cltd   
}
  800cec:	c9                   	leave  
  800ced:	c3                   	ret    

00800cee <vprintfmt>:


// Main function to format and print a string.
void printfmt(void (*putch)(int, void*), void *putdat, const char *fmt, ...);

void
vprintfmt(void (*putch)(int, void*), void *putdat, const char *fmt, va_list ap)
{
  800cee:	55                   	push   %ebp
  800cef:	89 e5                	mov    %esp,%ebp
  800cf1:	57                   	push   %edi
  800cf2:	56                   	push   %esi
  800cf3:	53                   	push   %ebx
  800cf4:	83 ec 1c             	sub    $0x1c,%esp
  800cf7:	8b 5d 10             	mov    0x10(%ebp),%ebx
	register const char *p;
	register int ch, err;
	unsigned long long num;
	int base, lflag, width, precision, altflag;
	char padc;

	while (1) {
		while ((ch = *(unsigned char *) fmt++) != '%') {
			if (ch == '\0')
				return;
			putch(ch, putdat);
  800cfa:	0f b6 13             	movzbl (%ebx),%edx
  800cfd:	43                   	inc    %ebx
  800cfe:	83 fa 25             	cmp    $0x25,%edx
  800d01:	74 1e                	je     800d21 <vprintfmt+0x33>
  800d03:	85 d2                	test   %edx,%edx
  800d05:	0f 84 d7 02 00 00    	je     800fe2 <vprintfmt+0x2f4>
  800d0b:	83 ec 08             	sub    $0x8,%esp
  800d0e:	ff 75 0c             	pushl  0xc(%ebp)
  800d11:	52                   	push   %edx
  800d12:	ff 55 08             	call   *0x8(%ebp)
  800d15:	83 c4 10             	add    $0x10,%esp
  800d18:	0f b6 13             	movzbl (%ebx),%edx
  800d1b:	43                   	inc    %ebx
  800d1c:	83 fa 25             	cmp    $0x25,%edx
  800d1f:	75 e2                	jne    800d03 <vprintfmt+0x15>
		}

		// Process a %-escape sequence
		padc = ' ';
  800d21:	c6 45 eb 20          	movb   $0x20,0xffffffeb(%ebp)
		width = -1;
  800d25:	c7 45 f0 ff ff ff ff 	movl   $0xffffffff,0xfffffff0(%ebp)
		precision = -1;
  800d2c:	be ff ff ff ff       	mov    $0xffffffff,%esi
		lflag = 0;
  800d31:	b9 00 00 00 00       	mov    $0x0,%ecx
		altflag = 0;
  800d36:	c7 45 ec 00 00 00 00 	movl   $0x0,0xffffffec(%ebp)
	reswitch:
		switch (ch = *(unsigned char *) fmt++) {
  800d3d:	0f b6 13             	movzbl (%ebx),%edx
  800d40:	8d 42 dd             	lea    0xffffffdd(%edx),%eax
  800d43:	43                   	inc    %ebx
  800d44:	83 f8 55             	cmp    $0x55,%eax
  800d47:	0f 87 70 02 00 00    	ja     800fbd <vprintfmt+0x2cf>
  800d4d:	ff 24 85 3c 1e 81 00 	jmp    *0x811e3c(,%eax,4)

		// flag to pad on the right
		case '-':
			padc = '-';
  800d54:	c6 45 eb 2d          	movb   $0x2d,0xffffffeb(%ebp)
			goto reswitch;
  800d58:	eb e3                	jmp    800d3d <vprintfmt+0x4f>
			
		// flag to pad with 0's instead of spaces
		case '0':
			padc = '0';
  800d5a:	c6 45 eb 30          	movb   $0x30,0xffffffeb(%ebp)
			goto reswitch;
  800d5e:	eb dd                	jmp    800d3d <vprintfmt+0x4f>

		// width field
		case '1':
		case '2':
		case '3':
		case '4':
		case '5':
		case '6':
		case '7':
		case '8':
		case '9':
			for (precision = 0; ; ++fmt) {
  800d60:	be 00 00 00 00       	mov    $0x0,%esi
				precision = precision * 10 + ch - '0';
  800d65:	8d 04 b6             	lea    (%esi,%esi,4),%eax
  800d68:	8d 74 42 d0          	lea    0xffffffd0(%edx,%eax,2),%esi
				ch = *fmt;
  800d6c:	0f be 13             	movsbl (%ebx),%edx
				if (ch < '0' || ch > '9')
  800d6f:	8d 42 d0             	lea    0xffffffd0(%edx),%eax
  800d72:	83 f8 09             	cmp    $0x9,%eax
  800d75:	77 27                	ja     800d9e <vprintfmt+0xb0>
  800d77:	43                   	inc    %ebx
  800d78:	eb eb                	jmp    800d65 <vprintfmt+0x77>
					break;
			}
			goto process_precision;

		case '*':
			precision = va_arg(ap, int);
  800d7a:	83 45 14 04          	addl   $0x4,0x14(%ebp)
  800d7e:	8b 45 14             	mov    0x14(%ebp),%eax
  800d81:	8b 70 fc             	mov    0xfffffffc(%eax),%esi
			goto process_precision;
  800d84:	eb 18                	jmp    800d9e <vprintfmt+0xb0>

		case '.':
			if (width < 0)
  800d86:	83 7d f0 00          	cmpl   $0x0,0xfffffff0(%ebp)
  800d8a:	79 b1                	jns    800d3d <vprintfmt+0x4f>
				width = 0;
  800d8c:	c7 45 f0 00 00 00 00 	movl   $0x0,0xfffffff0(%ebp)
			goto reswitch;
  800d93:	eb a8                	jmp    800d3d <vprintfmt+0x4f>

		case '#':
			altflag = 1;
  800d95:	c7 45 ec 01 00 00 00 	movl   $0x1,0xffffffec(%ebp)
			goto reswitch;
  800d9c:	eb 9f                	jmp    800d3d <vprintfmt+0x4f>

		process_precision:
			if (width < 0)
  800d9e:	83 7d f0 00          	cmpl   $0x0,0xfffffff0(%ebp)
  800da2:	79 99                	jns    800d3d <vprintfmt+0x4f>
				width = precision, precision = -1;
  800da4:	89 75 f0             	mov    %esi,0xfffffff0(%ebp)
  800da7:	be ff ff ff ff       	mov    $0xffffffff,%esi
			goto reswitch;
  800dac:	eb 8f                	jmp    800d3d <vprintfmt+0x4f>

		// long flag (doubled for long long)
		case 'l':
			lflag++;
  800dae:	41                   	inc    %ecx
			goto reswitch;
  800daf:	eb 8c                	jmp    800d3d <vprintfmt+0x4f>

		// character
		case 'c':
			putch(va_arg(ap, int), putdat);
  800db1:	83 ec 08             	sub    $0x8,%esp
  800db4:	ff 75 0c             	pushl  0xc(%ebp)
  800db7:	83 45 14 04          	addl   $0x4,0x14(%ebp)
  800dbb:	8b 45 14             	mov    0x14(%ebp),%eax
  800dbe:	ff 70 fc             	pushl  0xfffffffc(%eax)
  800dc1:	ff 55 08             	call   *0x8(%ebp)
			break;
  800dc4:	83 c4 10             	add    $0x10,%esp
  800dc7:	e9 2e ff ff ff       	jmp    800cfa <vprintfmt+0xc>

		// error message
		case 'e':
			err = va_arg(ap, int);
  800dcc:	83 45 14 04          	addl   $0x4,0x14(%ebp)
  800dd0:	8b 45 14             	mov    0x14(%ebp),%eax
  800dd3:	8b 40 fc             	mov    0xfffffffc(%eax),%eax
			if (err < 0)
  800dd6:	85 c0                	test   %eax,%eax
  800dd8:	79 02                	jns    800ddc <vprintfmt+0xee>
				err = -err;
  800dda:	f7 d8                	neg    %eax
			if (err > MAXERROR || (p = error_string[err]) == NULL)
  800ddc:	83 f8 0e             	cmp    $0xe,%eax
  800ddf:	7f 0b                	jg     800dec <vprintfmt+0xfe>
  800de1:	8b 3c 85 00 1e 81 00 	mov    0x811e00(,%eax,4),%edi
  800de8:	85 ff                	test   %edi,%edi
  800dea:	75 19                	jne    800e05 <vprintfmt+0x117>
				printfmt(putch, putdat, "error %d", err);
  800dec:	50                   	push   %eax
  800ded:	68 c6 1d 81 00       	push   $0x811dc6
  800df2:	ff 75 0c             	pushl  0xc(%ebp)
  800df5:	ff 75 08             	pushl  0x8(%ebp)
  800df8:	e8 ed 01 00 00       	call   800fea <printfmt>
  800dfd:	83 c4 10             	add    $0x10,%esp
  800e00:	e9 f5 fe ff ff       	jmp    800cfa <vprintfmt+0xc>
			else
				printfmt(putch, putdat, "%s", p);
  800e05:	57                   	push   %edi
  800e06:	68 69 22 81 00       	push   $0x812269
  800e0b:	ff 75 0c             	pushl  0xc(%ebp)
  800e0e:	ff 75 08             	pushl  0x8(%ebp)
  800e11:	e8 d4 01 00 00       	call   800fea <printfmt>
  800e16:	83 c4 10             	add    $0x10,%esp
			break;
  800e19:	e9 dc fe ff ff       	jmp    800cfa <vprintfmt+0xc>

		// string
		case 's':
			if ((p = va_arg(ap, char *)) == NULL)
  800e1e:	83 45 14 04          	addl   $0x4,0x14(%ebp)
  800e22:	8b 45 14             	mov    0x14(%ebp),%eax
  800e25:	8b 78 fc             	mov    0xfffffffc(%eax),%edi
  800e28:	85 ff                	test   %edi,%edi
  800e2a:	75 05                	jne    800e31 <vprintfmt+0x143>
				p = "(null)";
  800e2c:	bf cf 1d 81 00       	mov    $0x811dcf,%edi
			if (width > 0 && padc != '-')
  800e31:	83 7d f0 00          	cmpl   $0x0,0xfffffff0(%ebp)
  800e35:	7e 3b                	jle    800e72 <vprintfmt+0x184>
  800e37:	80 7d eb 2d          	cmpb   $0x2d,0xffffffeb(%ebp)
  800e3b:	74 35                	je     800e72 <vprintfmt+0x184>
				for (width -= strnlen(p, precision); width > 0; width--)
  800e3d:	83 ec 08             	sub    $0x8,%esp
  800e40:	56                   	push   %esi
  800e41:	57                   	push   %edi
  800e42:	e8 56 03 00 00       	call   80119d <strnlen>
  800e47:	29 45 f0             	sub    %eax,0xfffffff0(%ebp)
  800e4a:	83 c4 10             	add    $0x10,%esp
  800e4d:	83 7d f0 00          	cmpl   $0x0,0xfffffff0(%ebp)
  800e51:	7e 1f                	jle    800e72 <vprintfmt+0x184>
  800e53:	0f be 45 eb          	movsbl 0xffffffeb(%ebp),%eax
  800e57:	89 45 e4             	mov    %eax,0xffffffe4(%ebp)
					putch(padc, putdat);
  800e5a:	83 ec 08             	sub    $0x8,%esp
  800e5d:	ff 75 0c             	pushl  0xc(%ebp)
  800e60:	ff 75 e4             	pushl  0xffffffe4(%ebp)
  800e63:	ff 55 08             	call   *0x8(%ebp)
  800e66:	83 c4 10             	add    $0x10,%esp
  800e69:	ff 4d f0             	decl   0xfffffff0(%ebp)
  800e6c:	83 7d f0 00          	cmpl   $0x0,0xfffffff0(%ebp)
  800e70:	7f e8                	jg     800e5a <vprintfmt+0x16c>
			for (; (ch = *p++) != '\0' && (precision < 0 || --precision >= 0); width--)
  800e72:	0f be 17             	movsbl (%edi),%edx
  800e75:	47                   	inc    %edi
  800e76:	85 d2                	test   %edx,%edx
  800e78:	74 44                	je     800ebe <vprintfmt+0x1d0>
  800e7a:	85 f6                	test   %esi,%esi
  800e7c:	78 03                	js     800e81 <vprintfmt+0x193>
  800e7e:	4e                   	dec    %esi
  800e7f:	78 3d                	js     800ebe <vprintfmt+0x1d0>
				if (altflag && (ch < ' ' || ch > '~'))
  800e81:	83 7d ec 00          	cmpl   $0x0,0xffffffec(%ebp)
  800e85:	74 18                	je     800e9f <vprintfmt+0x1b1>
  800e87:	8d 42 e0             	lea    0xffffffe0(%edx),%eax
  800e8a:	83 f8 5e             	cmp    $0x5e,%eax
  800e8d:	76 10                	jbe    800e9f <vprintfmt+0x1b1>
					putch('?', putdat);
  800e8f:	83 ec 08             	sub    $0x8,%esp
  800e92:	ff 75 0c             	pushl  0xc(%ebp)
  800e95:	6a 3f                	push   $0x3f
  800e97:	ff 55 08             	call   *0x8(%ebp)
  800e9a:	83 c4 10             	add    $0x10,%esp
  800e9d:	eb 0d                	jmp    800eac <vprintfmt+0x1be>
				else
					putch(ch, putdat);
  800e9f:	83 ec 08             	sub    $0x8,%esp
  800ea2:	ff 75 0c             	pushl  0xc(%ebp)
  800ea5:	52                   	push   %edx
  800ea6:	ff 55 08             	call   *0x8(%ebp)
  800ea9:	83 c4 10             	add    $0x10,%esp
  800eac:	ff 4d f0             	decl   0xfffffff0(%ebp)
  800eaf:	0f be 17             	movsbl (%edi),%edx
  800eb2:	47                   	inc    %edi
  800eb3:	85 d2                	test   %edx,%edx
  800eb5:	74 07                	je     800ebe <vprintfmt+0x1d0>
  800eb7:	85 f6                	test   %esi,%esi
  800eb9:	78 c6                	js     800e81 <vprintfmt+0x193>
  800ebb:	4e                   	dec    %esi
  800ebc:	79 c3                	jns    800e81 <vprintfmt+0x193>
			for (; width > 0; width--)
  800ebe:	83 7d f0 00          	cmpl   $0x0,0xfffffff0(%ebp)
  800ec2:	0f 8e 32 fe ff ff    	jle    800cfa <vprintfmt+0xc>
				putch(' ', putdat);
  800ec8:	83 ec 08             	sub    $0x8,%esp
  800ecb:	ff 75 0c             	pushl  0xc(%ebp)
  800ece:	6a 20                	push   $0x20
  800ed0:	ff 55 08             	call   *0x8(%ebp)
  800ed3:	83 c4 10             	add    $0x10,%esp
  800ed6:	ff 4d f0             	decl   0xfffffff0(%ebp)
  800ed9:	83 7d f0 00          	cmpl   $0x0,0xfffffff0(%ebp)
  800edd:	7f e9                	jg     800ec8 <vprintfmt+0x1da>
			break;
  800edf:	e9 16 fe ff ff       	jmp    800cfa <vprintfmt+0xc>

		// (signed) decimal
		case 'd':
			num = getint(&ap, lflag);
  800ee4:	51                   	push   %ecx
  800ee5:	8d 45 14             	lea    0x14(%ebp),%eax
  800ee8:	50                   	push   %eax
  800ee9:	e8 c5 fd ff ff       	call   800cb3 <getint>
  800eee:	89 c6                	mov    %eax,%esi
  800ef0:	89 d7                	mov    %edx,%edi
			if ((long long) num < 0) {
  800ef2:	83 c4 08             	add    $0x8,%esp
  800ef5:	85 d2                	test   %edx,%edx
  800ef7:	79 15                	jns    800f0e <vprintfmt+0x220>
				putch('-', putdat);
  800ef9:	83 ec 08             	sub    $0x8,%esp
  800efc:	ff 75 0c             	pushl  0xc(%ebp)
  800eff:	6a 2d                	push   $0x2d
  800f01:	ff 55 08             	call   *0x8(%ebp)
				num = -(long long) num;
  800f04:	f7 de                	neg    %esi
  800f06:	83 d7 00             	adc    $0x0,%edi
  800f09:	f7 df                	neg    %edi
  800f0b:	83 c4 10             	add    $0x10,%esp
			}
			base = 10;
  800f0e:	ba 0a 00 00 00       	mov    $0xa,%edx
			goto number;
  800f13:	eb 75                	jmp    800f8a <vprintfmt+0x29c>

		// unsigned decimal
		case 'u':
			num = getuint(&ap, lflag);
  800f15:	51                   	push   %ecx
  800f16:	8d 45 14             	lea    0x14(%ebp),%eax
  800f19:	50                   	push   %eax
  800f1a:	e8 51 fd ff ff       	call   800c70 <getuint>
  800f1f:	89 c6                	mov    %eax,%esi
  800f21:	89 d7                	mov    %edx,%edi
			base = 10;
  800f23:	ba 0a 00 00 00       	mov    $0xa,%edx
			goto number;
  800f28:	83 c4 08             	add    $0x8,%esp
  800f2b:	eb 5d                	jmp    800f8a <vprintfmt+0x29c>

		// (unsigned) octal
		case 'o':
                        /*
                        // Staff code below
			// Replace this with your code.
			putch('X', putdat);
			putch('X', putdat);
			putch('X', putdat);
			break;
                        */
                        // seanyliu
			num = getuint(&ap, lflag);
  800f2d:	51                   	push   %ecx
  800f2e:	8d 45 14             	lea    0x14(%ebp),%eax
  800f31:	50                   	push   %eax
  800f32:	e8 39 fd ff ff       	call   800c70 <getuint>
  800f37:	89 c6                	mov    %eax,%esi
  800f39:	89 d7                	mov    %edx,%edi
			base = 8;
  800f3b:	ba 08 00 00 00       	mov    $0x8,%edx
			goto number;
  800f40:	83 c4 08             	add    $0x8,%esp
  800f43:	eb 45                	jmp    800f8a <vprintfmt+0x29c>

		// pointer
		case 'p':
			putch('0', putdat);
  800f45:	83 ec 08             	sub    $0x8,%esp
  800f48:	ff 75 0c             	pushl  0xc(%ebp)
  800f4b:	6a 30                	push   $0x30
  800f4d:	ff 55 08             	call   *0x8(%ebp)
			putch('x', putdat);
  800f50:	83 c4 08             	add    $0x8,%esp
  800f53:	ff 75 0c             	pushl  0xc(%ebp)
  800f56:	6a 78                	push   $0x78
  800f58:	ff 55 08             	call   *0x8(%ebp)
			num = (unsigned long long)
  800f5b:	83 45 14 04          	addl   $0x4,0x14(%ebp)
  800f5f:	8b 45 14             	mov    0x14(%ebp),%eax
  800f62:	8b 70 fc             	mov    0xfffffffc(%eax),%esi
  800f65:	bf 00 00 00 00       	mov    $0x0,%edi
				(uintptr_t) va_arg(ap, void *);
			base = 16;
  800f6a:	ba 10 00 00 00       	mov    $0x10,%edx
			goto number;
  800f6f:	83 c4 10             	add    $0x10,%esp
  800f72:	eb 16                	jmp    800f8a <vprintfmt+0x29c>

		// (unsigned) hexadecimal
		case 'x':
			num = getuint(&ap, lflag);
  800f74:	51                   	push   %ecx
  800f75:	8d 45 14             	lea    0x14(%ebp),%eax
  800f78:	50                   	push   %eax
  800f79:	e8 f2 fc ff ff       	call   800c70 <getuint>
  800f7e:	89 c6                	mov    %eax,%esi
  800f80:	89 d7                	mov    %edx,%edi
			base = 16;
  800f82:	ba 10 00 00 00       	mov    $0x10,%edx
  800f87:	83 c4 08             	add    $0x8,%esp
		number:
			printnum(putch, putdat, num, base, width, padc);
  800f8a:	83 ec 04             	sub    $0x4,%esp
  800f8d:	0f be 45 eb          	movsbl 0xffffffeb(%ebp),%eax
  800f91:	50                   	push   %eax
  800f92:	ff 75 f0             	pushl  0xfffffff0(%ebp)
  800f95:	52                   	push   %edx
  800f96:	57                   	push   %edi
  800f97:	56                   	push   %esi
  800f98:	ff 75 0c             	pushl  0xc(%ebp)
  800f9b:	ff 75 08             	pushl  0x8(%ebp)
  800f9e:	e8 2d fc ff ff       	call   800bd0 <printnum>
			break;
  800fa3:	83 c4 20             	add    $0x20,%esp
  800fa6:	e9 4f fd ff ff       	jmp    800cfa <vprintfmt+0xc>

		// escaped '%' character
		case '%':
			putch(ch, putdat);
  800fab:	83 ec 08             	sub    $0x8,%esp
  800fae:	ff 75 0c             	pushl  0xc(%ebp)
  800fb1:	52                   	push   %edx
  800fb2:	ff 55 08             	call   *0x8(%ebp)
			break;
  800fb5:	83 c4 10             	add    $0x10,%esp
  800fb8:	e9 3d fd ff ff       	jmp    800cfa <vprintfmt+0xc>
			
		// unrecognized escape sequence - just print it literally
		default:
			putch('%', putdat);
  800fbd:	83 ec 08             	sub    $0x8,%esp
  800fc0:	ff 75 0c             	pushl  0xc(%ebp)
  800fc3:	6a 25                	push   $0x25
  800fc5:	ff 55 08             	call   *0x8(%ebp)
			for (fmt--; fmt[-1] != '%'; fmt--)
  800fc8:	4b                   	dec    %ebx
  800fc9:	83 c4 10             	add    $0x10,%esp
  800fcc:	80 7b ff 25          	cmpb   $0x25,0xffffffff(%ebx)
  800fd0:	0f 84 24 fd ff ff    	je     800cfa <vprintfmt+0xc>
  800fd6:	4b                   	dec    %ebx
  800fd7:	80 7b ff 25          	cmpb   $0x25,0xffffffff(%ebx)
  800fdb:	75 f9                	jne    800fd6 <vprintfmt+0x2e8>
				/* do nothing */;
			break;
  800fdd:	e9 18 fd ff ff       	jmp    800cfa <vprintfmt+0xc>
		}
	}
}
  800fe2:	8d 65 f4             	lea    0xfffffff4(%ebp),%esp
  800fe5:	5b                   	pop    %ebx
  800fe6:	5e                   	pop    %esi
  800fe7:	5f                   	pop    %edi
  800fe8:	c9                   	leave  
  800fe9:	c3                   	ret    

00800fea <printfmt>:

void
printfmt(void (*putch)(int, void*), void *putdat, const char *fmt, ...)
{
  800fea:	55                   	push   %ebp
  800feb:	89 e5                	mov    %esp,%ebp
  800fed:	83 ec 08             	sub    $0x8,%esp
	va_list ap;

	va_start(ap, fmt);
  800ff0:	8d 45 14             	lea    0x14(%ebp),%eax
	vprintfmt(putch, putdat, fmt, ap);
  800ff3:	50                   	push   %eax
  800ff4:	ff 75 10             	pushl  0x10(%ebp)
  800ff7:	ff 75 0c             	pushl  0xc(%ebp)
  800ffa:	ff 75 08             	pushl  0x8(%ebp)
  800ffd:	e8 ec fc ff ff       	call   800cee <vprintfmt>
	va_end(ap);
}
  801002:	c9                   	leave  
  801003:	c3                   	ret    

00801004 <sprintputch>:

struct sprintbuf {
	char *buf;
	char *ebuf;
	int cnt;
};

static void
sprintputch(int ch, struct sprintbuf *b)
{
  801004:	55                   	push   %ebp
  801005:	89 e5                	mov    %esp,%ebp
  801007:	8b 55 0c             	mov    0xc(%ebp),%edx
	b->cnt++;
  80100a:	ff 42 08             	incl   0x8(%edx)
	if (b->buf < b->ebuf)
  80100d:	8b 0a                	mov    (%edx),%ecx
  80100f:	3b 4a 04             	cmp    0x4(%edx),%ecx
  801012:	73 07                	jae    80101b <sprintputch+0x17>
		*b->buf++ = ch;
  801014:	8b 45 08             	mov    0x8(%ebp),%eax
  801017:	88 01                	mov    %al,(%ecx)
  801019:	ff 02                	incl   (%edx)
}
  80101b:	c9                   	leave  
  80101c:	c3                   	ret    

0080101d <vsnprintf>:

int
vsnprintf(char *buf, int n, const char *fmt, va_list ap)
{
  80101d:	55                   	push   %ebp
  80101e:	89 e5                	mov    %esp,%ebp
  801020:	83 ec 18             	sub    $0x18,%esp
  801023:	8b 55 08             	mov    0x8(%ebp),%edx
  801026:	8b 4d 0c             	mov    0xc(%ebp),%ecx
	struct sprintbuf b = {buf, buf+n-1, 0};
  801029:	89 55 e8             	mov    %edx,0xffffffe8(%ebp)
  80102c:	8d 44 0a ff          	lea    0xffffffff(%edx,%ecx,1),%eax
  801030:	89 45 ec             	mov    %eax,0xffffffec(%ebp)
  801033:	c7 45 f0 00 00 00 00 	movl   $0x0,0xfffffff0(%ebp)

	if (buf == NULL || n < 1)
  80103a:	85 d2                	test   %edx,%edx
  80103c:	74 04                	je     801042 <vsnprintf+0x25>
  80103e:	85 c9                	test   %ecx,%ecx
  801040:	7f 07                	jg     801049 <vsnprintf+0x2c>
		return -E_INVAL;
  801042:	b8 fd ff ff ff       	mov    $0xfffffffd,%eax
  801047:	eb 1d                	jmp    801066 <vsnprintf+0x49>

	// print the string to the buffer
	vprintfmt((void*)sprintputch, &b, fmt, ap);
  801049:	ff 75 14             	pushl  0x14(%ebp)
  80104c:	ff 75 10             	pushl  0x10(%ebp)
  80104f:	8d 45 e8             	lea    0xffffffe8(%ebp),%eax
  801052:	50                   	push   %eax
  801053:	68 04 10 80 00       	push   $0x801004
  801058:	e8 91 fc ff ff       	call   800cee <vprintfmt>

	// null terminate the buffer
	*b.buf = '\0';
  80105d:	8b 45 e8             	mov    0xffffffe8(%ebp),%eax
  801060:	c6 00 00             	movb   $0x0,(%eax)

	return b.cnt;
  801063:	8b 45 f0             	mov    0xfffffff0(%ebp),%eax
}
  801066:	c9                   	leave  
  801067:	c3                   	ret    

00801068 <snprintf>:

int
snprintf(char *buf, int n, const char *fmt, ...)
{
  801068:	55                   	push   %ebp
  801069:	89 e5                	mov    %esp,%ebp
  80106b:	83 ec 08             	sub    $0x8,%esp
	va_list ap;
	int rc;

	va_start(ap, fmt);
  80106e:	8d 45 14             	lea    0x14(%ebp),%eax
	rc = vsnprintf(buf, n, fmt, ap);
  801071:	50                   	push   %eax
  801072:	ff 75 10             	pushl  0x10(%ebp)
  801075:	ff 75 0c             	pushl  0xc(%ebp)
  801078:	ff 75 08             	pushl  0x8(%ebp)
  80107b:	e8 9d ff ff ff       	call   80101d <vsnprintf>
	va_end(ap);

	return rc;
}
  801080:	c9                   	leave  
  801081:	c3                   	ret    
	...

00801084 <strtoint>:
// Takes in a string in the format 0x????.
// Assumes all letters are lower case.
// If invalid formatting, then returns -1
int
strtoint(char *string) {
  801084:	55                   	push   %ebp
  801085:	89 e5                	mov    %esp,%ebp
  801087:	56                   	push   %esi
  801088:	53                   	push   %ebx
  801089:	8b 75 08             	mov    0x8(%ebp),%esi
  int cidx = 0;
  int end = strlen(string)-1;
  80108c:	83 ec 0c             	sub    $0xc,%esp
  80108f:	56                   	push   %esi
  801090:	e8 ef 00 00 00       	call   801184 <strlen>
  char letter;
  int hexnum = 0;
  801095:	bb 00 00 00 00       	mov    $0x0,%ebx
  int multiplier = 1;
  80109a:	b9 01 00 00 00       	mov    $0x1,%ecx

  // pluck off characters from the end and
  // multiply by the right hex value.
  for (cidx = end; cidx > -1; cidx--) {
  80109f:	83 c4 10             	add    $0x10,%esp
  8010a2:	89 c2                	mov    %eax,%edx
  8010a4:	4a                   	dec    %edx
  8010a5:	0f 88 d0 00 00 00    	js     80117b <strtoint+0xf7>
    letter = string[cidx];
  8010ab:	8a 04 16             	mov    (%esi,%edx,1),%al
    if (cidx == 0) {
  8010ae:	85 d2                	test   %edx,%edx
  8010b0:	75 12                	jne    8010c4 <strtoint+0x40>
      if (letter != '0') {
  8010b2:	3c 30                	cmp    $0x30,%al
  8010b4:	0f 84 ba 00 00 00    	je     801174 <strtoint+0xf0>
        //cprintf("Error: not a hex address.\n");
        return -1;
  8010ba:	b8 ff ff ff ff       	mov    $0xffffffff,%eax
  8010bf:	e9 b9 00 00 00       	jmp    80117d <strtoint+0xf9>
      }
    } else if (cidx == 1) {
  8010c4:	83 fa 01             	cmp    $0x1,%edx
  8010c7:	75 12                	jne    8010db <strtoint+0x57>
      if (letter != 'x') {
  8010c9:	3c 78                	cmp    $0x78,%al
  8010cb:	0f 84 a3 00 00 00    	je     801174 <strtoint+0xf0>
        //cprintf("Error: not a hex address.\n");
        return -1;
  8010d1:	b8 ff ff ff ff       	mov    $0xffffffff,%eax
  8010d6:	e9 a2 00 00 00       	jmp    80117d <strtoint+0xf9>
      }
    } else {
      switch (letter) {
  8010db:	0f be c0             	movsbl %al,%eax
  8010de:	83 e8 30             	sub    $0x30,%eax
  8010e1:	83 f8 36             	cmp    $0x36,%eax
  8010e4:	0f 87 80 00 00 00    	ja     80116a <strtoint+0xe6>
  8010ea:	ff 24 85 94 1f 81 00 	jmp    *0x811f94(,%eax,4)
        case '0':
          hexnum += 0 * multiplier;
          break;
        case '1':
          hexnum += 1 * multiplier;
  8010f1:	01 cb                	add    %ecx,%ebx
          break;
  8010f3:	eb 7c                	jmp    801171 <strtoint+0xed>
        case '2':
          hexnum += 2 * multiplier;
  8010f5:	8d 1c 4b             	lea    (%ebx,%ecx,2),%ebx
          break;
  8010f8:	eb 77                	jmp    801171 <strtoint+0xed>
        case '3':
          hexnum += 3 * multiplier;
  8010fa:	8d 04 49             	lea    (%ecx,%ecx,2),%eax
  8010fd:	01 c3                	add    %eax,%ebx
          break;
  8010ff:	eb 70                	jmp    801171 <strtoint+0xed>
        case '4':
          hexnum += 4 * multiplier;
  801101:	8d 1c 8b             	lea    (%ebx,%ecx,4),%ebx
          break;
  801104:	eb 6b                	jmp    801171 <strtoint+0xed>
        case '5':
          hexnum += 5 * multiplier;
  801106:	8d 04 89             	lea    (%ecx,%ecx,4),%eax
  801109:	01 c3                	add    %eax,%ebx
          break;
  80110b:	eb 64                	jmp    801171 <strtoint+0xed>
        case '6':
          hexnum += 6 * multiplier;
  80110d:	8d 04 49             	lea    (%ecx,%ecx,2),%eax
  801110:	8d 1c 43             	lea    (%ebx,%eax,2),%ebx
          break;
  801113:	eb 5c                	jmp    801171 <strtoint+0xed>
        case '7':
          hexnum += 7 * multiplier;
  801115:	8d 04 cd 00 00 00 00 	lea    0x0(,%ecx,8),%eax
  80111c:	29 c8                	sub    %ecx,%eax
  80111e:	01 c3                	add    %eax,%ebx
          break;
  801120:	eb 4f                	jmp    801171 <strtoint+0xed>
        case '8':
          hexnum += 8 * multiplier;
  801122:	8d 1c cb             	lea    (%ebx,%ecx,8),%ebx
          break;
  801125:	eb 4a                	jmp    801171 <strtoint+0xed>
        case '9':
          hexnum += 9 * multiplier;
  801127:	8d 04 c9             	lea    (%ecx,%ecx,8),%eax
  80112a:	01 c3                	add    %eax,%ebx
          break;
  80112c:	eb 43                	jmp    801171 <strtoint+0xed>
        case 'a':
          hexnum += 10 * multiplier;
  80112e:	8d 04 89             	lea    (%ecx,%ecx,4),%eax
  801131:	8d 1c 43             	lea    (%ebx,%eax,2),%ebx
          break;
  801134:	eb 3b                	jmp    801171 <strtoint+0xed>
        case 'b':
          hexnum += 11 * multiplier;
  801136:	8d 04 89             	lea    (%ecx,%ecx,4),%eax
  801139:	8d 04 41             	lea    (%ecx,%eax,2),%eax
  80113c:	01 c3                	add    %eax,%ebx
          break;
  80113e:	eb 31                	jmp    801171 <strtoint+0xed>
        case 'c':
          hexnum += 12 * multiplier;
  801140:	8d 04 49             	lea    (%ecx,%ecx,2),%eax
  801143:	8d 1c 83             	lea    (%ebx,%eax,4),%ebx
          break;
  801146:	eb 29                	jmp    801171 <strtoint+0xed>
        case 'd':
          hexnum += 13 * multiplier;
  801148:	8d 04 49             	lea    (%ecx,%ecx,2),%eax
  80114b:	8d 04 81             	lea    (%ecx,%eax,4),%eax
  80114e:	01 c3                	add    %eax,%ebx
          break;
  801150:	eb 1f                	jmp    801171 <strtoint+0xed>
        case 'e':
          hexnum += 14 * multiplier;
  801152:	8d 04 cd 00 00 00 00 	lea    0x0(,%ecx,8),%eax
  801159:	29 c8                	sub    %ecx,%eax
  80115b:	8d 1c 43             	lea    (%ebx,%eax,2),%ebx
          break;
  80115e:	eb 11                	jmp    801171 <strtoint+0xed>
        case 'f':
          hexnum += 15 * multiplier;
  801160:	8d 04 49             	lea    (%ecx,%ecx,2),%eax
  801163:	8d 04 80             	lea    (%eax,%eax,4),%eax
  801166:	01 c3                	add    %eax,%ebx
          break;
  801168:	eb 07                	jmp    801171 <strtoint+0xed>
        default:
          //cprintf("Error: not a hex address.\n");
          return -1;
  80116a:	b8 ff ff ff ff       	mov    $0xffffffff,%eax
  80116f:	eb 0c                	jmp    80117d <strtoint+0xf9>
          break;
      }
      multiplier = multiplier * 16;
  801171:	c1 e1 04             	shl    $0x4,%ecx
  801174:	4a                   	dec    %edx
  801175:	0f 89 30 ff ff ff    	jns    8010ab <strtoint+0x27>
    }
  }

  return hexnum;
  80117b:	89 d8                	mov    %ebx,%eax
}
  80117d:	8d 65 f8             	lea    0xfffffff8(%ebp),%esp
  801180:	5b                   	pop    %ebx
  801181:	5e                   	pop    %esi
  801182:	c9                   	leave  
  801183:	c3                   	ret    

00801184 <strlen>:





int
strlen(const char *s)
{
  801184:	55                   	push   %ebp
  801185:	89 e5                	mov    %esp,%ebp
  801187:	8b 55 08             	mov    0x8(%ebp),%edx
	int n;

	for (n = 0; *s != '\0'; s++)
  80118a:	b8 00 00 00 00       	mov    $0x0,%eax
  80118f:	80 3a 00             	cmpb   $0x0,(%edx)
  801192:	74 07                	je     80119b <strlen+0x17>
		n++;
  801194:	40                   	inc    %eax
  801195:	42                   	inc    %edx
  801196:	80 3a 00             	cmpb   $0x0,(%edx)
  801199:	75 f9                	jne    801194 <strlen+0x10>
	return n;
}
  80119b:	c9                   	leave  
  80119c:	c3                   	ret    

0080119d <strnlen>:

int
strnlen(const char *s, size_t size)
{
  80119d:	55                   	push   %ebp
  80119e:	89 e5                	mov    %esp,%ebp
  8011a0:	8b 4d 08             	mov    0x8(%ebp),%ecx
  8011a3:	8b 55 0c             	mov    0xc(%ebp),%edx
	int n;

	for (n = 0; size > 0 && *s != '\0'; s++, size--)
  8011a6:	b8 00 00 00 00       	mov    $0x0,%eax
  8011ab:	85 d2                	test   %edx,%edx
  8011ad:	74 0f                	je     8011be <strnlen+0x21>
  8011af:	80 39 00             	cmpb   $0x0,(%ecx)
  8011b2:	74 0a                	je     8011be <strnlen+0x21>
		n++;
  8011b4:	40                   	inc    %eax
  8011b5:	41                   	inc    %ecx
  8011b6:	4a                   	dec    %edx
  8011b7:	74 05                	je     8011be <strnlen+0x21>
  8011b9:	80 39 00             	cmpb   $0x0,(%ecx)
  8011bc:	75 f6                	jne    8011b4 <strnlen+0x17>
	return n;
}
  8011be:	c9                   	leave  
  8011bf:	c3                   	ret    

008011c0 <strcpy>:

char *
strcpy(char *dst, const char *src)
{
  8011c0:	55                   	push   %ebp
  8011c1:	89 e5                	mov    %esp,%ebp
  8011c3:	53                   	push   %ebx
  8011c4:	8b 4d 08             	mov    0x8(%ebp),%ecx
  8011c7:	8b 55 0c             	mov    0xc(%ebp),%edx
	char *ret;

	ret = dst;
  8011ca:	89 cb                	mov    %ecx,%ebx
	while ((*dst++ = *src++) != '\0')
  8011cc:	8a 02                	mov    (%edx),%al
  8011ce:	42                   	inc    %edx
  8011cf:	88 01                	mov    %al,(%ecx)
  8011d1:	41                   	inc    %ecx
  8011d2:	84 c0                	test   %al,%al
  8011d4:	75 f6                	jne    8011cc <strcpy+0xc>
		/* do nothing */;
	return ret;
}
  8011d6:	89 d8                	mov    %ebx,%eax
  8011d8:	5b                   	pop    %ebx
  8011d9:	c9                   	leave  
  8011da:	c3                   	ret    

008011db <strncpy>:

char *
strncpy(char *dst, const char *src, size_t size) {
  8011db:	55                   	push   %ebp
  8011dc:	89 e5                	mov    %esp,%ebp
  8011de:	57                   	push   %edi
  8011df:	56                   	push   %esi
  8011e0:	53                   	push   %ebx
  8011e1:	8b 4d 08             	mov    0x8(%ebp),%ecx
  8011e4:	8b 55 0c             	mov    0xc(%ebp),%edx
  8011e7:	8b 75 10             	mov    0x10(%ebp),%esi
	size_t i;
	char *ret;

	ret = dst;
  8011ea:	89 cf                	mov    %ecx,%edi
	for (i = 0; i < size; i++) {
  8011ec:	bb 00 00 00 00       	mov    $0x0,%ebx
  8011f1:	39 f3                	cmp    %esi,%ebx
  8011f3:	73 10                	jae    801205 <strncpy+0x2a>
		*dst++ = *src;
  8011f5:	8a 02                	mov    (%edx),%al
  8011f7:	88 01                	mov    %al,(%ecx)
  8011f9:	41                   	inc    %ecx
		// If strlen(src) < size, null-pad 'dst' out to 'size' chars
		if (*src != '\0')
			src++;
  8011fa:	80 3a 01             	cmpb   $0x1,(%edx)
  8011fd:	83 da ff             	sbb    $0xffffffff,%edx
  801200:	43                   	inc    %ebx
  801201:	39 f3                	cmp    %esi,%ebx
  801203:	72 f0                	jb     8011f5 <strncpy+0x1a>
	}
	return ret;
}
  801205:	89 f8                	mov    %edi,%eax
  801207:	5b                   	pop    %ebx
  801208:	5e                   	pop    %esi
  801209:	5f                   	pop    %edi
  80120a:	c9                   	leave  
  80120b:	c3                   	ret    

0080120c <strlcpy>:

size_t
strlcpy(char *dst, const char *src, size_t size)
{
  80120c:	55                   	push   %ebp
  80120d:	89 e5                	mov    %esp,%ebp
  80120f:	56                   	push   %esi
  801210:	53                   	push   %ebx
  801211:	8b 5d 08             	mov    0x8(%ebp),%ebx
  801214:	8b 4d 0c             	mov    0xc(%ebp),%ecx
  801217:	8b 55 10             	mov    0x10(%ebp),%edx
	char *dst_in;

	dst_in = dst;
  80121a:	89 de                	mov    %ebx,%esi
	if (size > 0) {
  80121c:	85 d2                	test   %edx,%edx
  80121e:	74 19                	je     801239 <strlcpy+0x2d>
		while (--size > 0 && *src != '\0')
			*dst++ = *src++;
  801220:	4a                   	dec    %edx
  801221:	74 13                	je     801236 <strlcpy+0x2a>
  801223:	80 39 00             	cmpb   $0x0,(%ecx)
  801226:	74 0e                	je     801236 <strlcpy+0x2a>
  801228:	8a 01                	mov    (%ecx),%al
  80122a:	41                   	inc    %ecx
  80122b:	88 03                	mov    %al,(%ebx)
  80122d:	43                   	inc    %ebx
  80122e:	4a                   	dec    %edx
  80122f:	74 05                	je     801236 <strlcpy+0x2a>
  801231:	80 39 00             	cmpb   $0x0,(%ecx)
  801234:	75 f2                	jne    801228 <strlcpy+0x1c>
		*dst = '\0';
  801236:	c6 03 00             	movb   $0x0,(%ebx)
	}
	return dst - dst_in;
  801239:	89 d8                	mov    %ebx,%eax
  80123b:	29 f0                	sub    %esi,%eax
}
  80123d:	5b                   	pop    %ebx
  80123e:	5e                   	pop    %esi
  80123f:	c9                   	leave  
  801240:	c3                   	ret    

00801241 <strcmp>:

int
strcmp(const char *p, const char *q)
{
  801241:	55                   	push   %ebp
  801242:	89 e5                	mov    %esp,%ebp
  801244:	8b 55 08             	mov    0x8(%ebp),%edx
  801247:	8b 4d 0c             	mov    0xc(%ebp),%ecx
	while (*p && *p == *q)
		p++, q++;
  80124a:	80 3a 00             	cmpb   $0x0,(%edx)
  80124d:	74 13                	je     801262 <strcmp+0x21>
  80124f:	8a 02                	mov    (%edx),%al
  801251:	3a 01                	cmp    (%ecx),%al
  801253:	75 0d                	jne    801262 <strcmp+0x21>
  801255:	42                   	inc    %edx
  801256:	41                   	inc    %ecx
  801257:	80 3a 00             	cmpb   $0x0,(%edx)
  80125a:	74 06                	je     801262 <strcmp+0x21>
  80125c:	8a 02                	mov    (%edx),%al
  80125e:	3a 01                	cmp    (%ecx),%al
  801260:	74 f3                	je     801255 <strcmp+0x14>
	return (int) ((unsigned char) *p - (unsigned char) *q);
  801262:	0f b6 02             	movzbl (%edx),%eax
  801265:	0f b6 11             	movzbl (%ecx),%edx
  801268:	29 d0                	sub    %edx,%eax
}
  80126a:	c9                   	leave  
  80126b:	c3                   	ret    

0080126c <strncmp>:

int
strncmp(const char *p, const char *q, size_t n)
{
  80126c:	55                   	push   %ebp
  80126d:	89 e5                	mov    %esp,%ebp
  80126f:	53                   	push   %ebx
  801270:	8b 55 08             	mov    0x8(%ebp),%edx
  801273:	8b 5d 0c             	mov    0xc(%ebp),%ebx
  801276:	8b 4d 10             	mov    0x10(%ebp),%ecx
	while (n > 0 && *p && *p == *q)
		n--, p++, q++;
  801279:	85 c9                	test   %ecx,%ecx
  80127b:	74 1f                	je     80129c <strncmp+0x30>
  80127d:	80 3a 00             	cmpb   $0x0,(%edx)
  801280:	74 16                	je     801298 <strncmp+0x2c>
  801282:	8a 02                	mov    (%edx),%al
  801284:	3a 03                	cmp    (%ebx),%al
  801286:	75 10                	jne    801298 <strncmp+0x2c>
  801288:	42                   	inc    %edx
  801289:	43                   	inc    %ebx
  80128a:	49                   	dec    %ecx
  80128b:	74 0f                	je     80129c <strncmp+0x30>
  80128d:	80 3a 00             	cmpb   $0x0,(%edx)
  801290:	74 06                	je     801298 <strncmp+0x2c>
  801292:	8a 02                	mov    (%edx),%al
  801294:	3a 03                	cmp    (%ebx),%al
  801296:	74 f0                	je     801288 <strncmp+0x1c>
	if (n == 0)
  801298:	85 c9                	test   %ecx,%ecx
  80129a:	75 07                	jne    8012a3 <strncmp+0x37>
		return 0;
  80129c:	b8 00 00 00 00       	mov    $0x0,%eax
  8012a1:	eb 0a                	jmp    8012ad <strncmp+0x41>
	else
		return (int) ((unsigned char) *p - (unsigned char) *q);
  8012a3:	0f b6 12             	movzbl (%edx),%edx
  8012a6:	0f b6 03             	movzbl (%ebx),%eax
  8012a9:	29 c2                	sub    %eax,%edx
  8012ab:	89 d0                	mov    %edx,%eax
}
  8012ad:	5b                   	pop    %ebx
  8012ae:	c9                   	leave  
  8012af:	c3                   	ret    

008012b0 <strchr>:

// Return a pointer to the first occurrence of 'c' in 's',
// or a null pointer if the string has no 'c'.
char *
strchr(const char *s, char c)
{
  8012b0:	55                   	push   %ebp
  8012b1:	89 e5                	mov    %esp,%ebp
  8012b3:	8b 45 08             	mov    0x8(%ebp),%eax
  8012b6:	8a 55 0c             	mov    0xc(%ebp),%dl
	for (; *s; s++)
  8012b9:	80 38 00             	cmpb   $0x0,(%eax)
  8012bc:	74 0a                	je     8012c8 <strchr+0x18>
		if (*s == c)
  8012be:	38 10                	cmp    %dl,(%eax)
  8012c0:	74 0b                	je     8012cd <strchr+0x1d>
  8012c2:	40                   	inc    %eax
  8012c3:	80 38 00             	cmpb   $0x0,(%eax)
  8012c6:	75 f6                	jne    8012be <strchr+0xe>
			return (char *) s;
	return 0;
  8012c8:	b8 00 00 00 00       	mov    $0x0,%eax
}
  8012cd:	c9                   	leave  
  8012ce:	c3                   	ret    

008012cf <strfind>:

// Return a pointer to the first occurrence of 'c' in 's',
// or a pointer to the string-ending null character if the string has no 'c'.
char *
strfind(const char *s, char c)
{
  8012cf:	55                   	push   %ebp
  8012d0:	89 e5                	mov    %esp,%ebp
  8012d2:	8b 45 08             	mov    0x8(%ebp),%eax
  8012d5:	8a 55 0c             	mov    0xc(%ebp),%dl
	for (; *s; s++)
  8012d8:	80 38 00             	cmpb   $0x0,(%eax)
  8012db:	74 0a                	je     8012e7 <strfind+0x18>
		if (*s == c)
  8012dd:	38 10                	cmp    %dl,(%eax)
  8012df:	74 06                	je     8012e7 <strfind+0x18>
  8012e1:	40                   	inc    %eax
  8012e2:	80 38 00             	cmpb   $0x0,(%eax)
  8012e5:	75 f6                	jne    8012dd <strfind+0xe>
			break;
	return (char *) s;
}
  8012e7:	c9                   	leave  
  8012e8:	c3                   	ret    

008012e9 <memset>:

#if ASM
void *
memset(void *v, int c, size_t n)
{
  8012e9:	55                   	push   %ebp
  8012ea:	89 e5                	mov    %esp,%ebp
  8012ec:	57                   	push   %edi
  8012ed:	8b 7d 08             	mov    0x8(%ebp),%edi
  8012f0:	8b 4d 10             	mov    0x10(%ebp),%ecx
	char *p;

	if (n == 0)
		return v;
  8012f3:	89 f8                	mov    %edi,%eax
  8012f5:	85 c9                	test   %ecx,%ecx
  8012f7:	74 40                	je     801339 <memset+0x50>
	if ((int)v%4 == 0 && n%4 == 0) {
  8012f9:	f7 c7 03 00 00 00    	test   $0x3,%edi
  8012ff:	75 30                	jne    801331 <memset+0x48>
  801301:	f6 c1 03             	test   $0x3,%cl
  801304:	75 2b                	jne    801331 <memset+0x48>
		c &= 0xFF;
  801306:	81 65 0c ff 00 00 00 	andl   $0xff,0xc(%ebp)
		c = (c<<24)|(c<<16)|(c<<8)|c;
  80130d:	8b 45 0c             	mov    0xc(%ebp),%eax
  801310:	c1 e0 18             	shl    $0x18,%eax
  801313:	8b 55 0c             	mov    0xc(%ebp),%edx
  801316:	c1 e2 10             	shl    $0x10,%edx
  801319:	09 d0                	or     %edx,%eax
  80131b:	8b 55 0c             	mov    0xc(%ebp),%edx
  80131e:	c1 e2 08             	shl    $0x8,%edx
  801321:	09 d0                	or     %edx,%eax
  801323:	09 45 0c             	or     %eax,0xc(%ebp)
		asm volatile("cld; rep stosl\n"
  801326:	c1 e9 02             	shr    $0x2,%ecx
  801329:	8b 45 0c             	mov    0xc(%ebp),%eax
  80132c:	fc                   	cld    
  80132d:	f3 ab                	repz stos %eax,%es:(%edi)
  80132f:	eb 06                	jmp    801337 <memset+0x4e>
			:: "D" (v), "a" (c), "c" (n/4)
			: "cc", "memory");
	} else
		asm volatile("cld; rep stosb\n"
  801331:	8b 45 0c             	mov    0xc(%ebp),%eax
  801334:	fc                   	cld    
  801335:	f3 aa                	repz stos %al,%es:(%edi)
			:: "D" (v), "a" (c), "c" (n)
			: "cc", "memory");
	return v;
  801337:	89 f8                	mov    %edi,%eax
}
  801339:	5f                   	pop    %edi
  80133a:	c9                   	leave  
  80133b:	c3                   	ret    

0080133c <memmove>:

void *
memmove(void *dst, const void *src, size_t n)
{
  80133c:	55                   	push   %ebp
  80133d:	89 e5                	mov    %esp,%ebp
  80133f:	57                   	push   %edi
  801340:	56                   	push   %esi
  801341:	8b 45 08             	mov    0x8(%ebp),%eax
  801344:	8b 4d 10             	mov    0x10(%ebp),%ecx
	const char *s;
	char *d;
	
	s = src;
  801347:	8b 75 0c             	mov    0xc(%ebp),%esi
	d = dst;
  80134a:	89 c7                	mov    %eax,%edi
	if (s < d && s + n > d) {
  80134c:	39 c6                	cmp    %eax,%esi
  80134e:	73 33                	jae    801383 <memmove+0x47>
  801350:	8d 14 0e             	lea    (%esi,%ecx,1),%edx
  801353:	39 c2                	cmp    %eax,%edx
  801355:	76 2c                	jbe    801383 <memmove+0x47>
		s += n;
  801357:	89 d6                	mov    %edx,%esi
		d += n;
  801359:	8d 3c 08             	lea    (%eax,%ecx,1),%edi
		if ((int)s%4 == 0 && (int)d%4 == 0 && n%4 == 0)
  80135c:	f6 c2 03             	test   $0x3,%dl
  80135f:	75 1b                	jne    80137c <memmove+0x40>
  801361:	f7 c7 03 00 00 00    	test   $0x3,%edi
  801367:	75 13                	jne    80137c <memmove+0x40>
  801369:	f6 c1 03             	test   $0x3,%cl
  80136c:	75 0e                	jne    80137c <memmove+0x40>
			asm volatile("std; rep movsl\n"
  80136e:	83 ef 04             	sub    $0x4,%edi
  801371:	83 ee 04             	sub    $0x4,%esi
  801374:	c1 e9 02             	shr    $0x2,%ecx
  801377:	fd                   	std    
  801378:	f3 a5                	repz movsl %ds:(%esi),%es:(%edi)
  80137a:	eb 27                	jmp    8013a3 <memmove+0x67>
				:: "D" (d-4), "S" (s-4), "c" (n/4) : "cc", "memory");
		else
			asm volatile("std; rep movsb\n"
  80137c:	4f                   	dec    %edi
  80137d:	4e                   	dec    %esi
  80137e:	fd                   	std    
  80137f:	f3 a4                	repz movsb %ds:(%esi),%es:(%edi)
  801381:	eb 20                	jmp    8013a3 <memmove+0x67>
				:: "D" (d-1), "S" (s-1), "c" (n) : "cc", "memory");
	} else {
		if ((int)s%4 == 0 && (int)d%4 == 0 && n%4 == 0)
  801383:	f7 c6 03 00 00 00    	test   $0x3,%esi
  801389:	75 15                	jne    8013a0 <memmove+0x64>
  80138b:	f7 c7 03 00 00 00    	test   $0x3,%edi
  801391:	75 0d                	jne    8013a0 <memmove+0x64>
  801393:	f6 c1 03             	test   $0x3,%cl
  801396:	75 08                	jne    8013a0 <memmove+0x64>
			asm volatile("cld; rep movsl\n"
  801398:	c1 e9 02             	shr    $0x2,%ecx
  80139b:	fc                   	cld    
  80139c:	f3 a5                	repz movsl %ds:(%esi),%es:(%edi)
  80139e:	eb 03                	jmp    8013a3 <memmove+0x67>
				:: "D" (d), "S" (s), "c" (n/4) : "cc", "memory");
		else
			asm volatile("cld; rep movsb\n"
  8013a0:	fc                   	cld    
  8013a1:	f3 a4                	repz movsb %ds:(%esi),%es:(%edi)
				:: "D" (d), "S" (s), "c" (n) : "cc", "memory");
	}
	return dst;
}
  8013a3:	5e                   	pop    %esi
  8013a4:	5f                   	pop    %edi
  8013a5:	c9                   	leave  
  8013a6:	c3                   	ret    

008013a7 <memcpy>:

#else

void *
memset(void *v, int c, size_t n)
{
	char *p;
	int m;

	p = v;
	m = n;
	while (--m >= 0)
		*p++ = c;

	return v;
}

/* no memcpy - use memmove instead */

void *
memmove(void *dst, const void *src, size_t n)
{
	const char *s;
	char *d;
	
	s = src;
	d = dst;
	if (s < d && s + n > d) {
		s += n;
		d += n;
		while (n-- > 0)
			*--d = *--s;
	} else
		while (n-- > 0)
			*d++ = *s++;

	return dst;
}
#endif

/* sigh - gcc emits references to this for structure assignments! */
/* it is *not* prototyped in inc/string.h - do not use directly. */
void *
memcpy(void *dst, void *src, size_t n)
{
  8013a7:	55                   	push   %ebp
  8013a8:	89 e5                	mov    %esp,%ebp
	return memmove(dst, src, n);
  8013aa:	ff 75 10             	pushl  0x10(%ebp)
  8013ad:	ff 75 0c             	pushl  0xc(%ebp)
  8013b0:	ff 75 08             	pushl  0x8(%ebp)
  8013b3:	e8 84 ff ff ff       	call   80133c <memmove>
}
  8013b8:	c9                   	leave  
  8013b9:	c3                   	ret    

008013ba <memcmp>:

int
memcmp(const void *v1, const void *v2, size_t n)
{
  8013ba:	55                   	push   %ebp
  8013bb:	89 e5                	mov    %esp,%ebp
  8013bd:	53                   	push   %ebx
	const uint8_t *s1 = (const uint8_t *) v1;
  8013be:	8b 4d 08             	mov    0x8(%ebp),%ecx
	const uint8_t *s2 = (const uint8_t *) v2;
  8013c1:	8b 5d 0c             	mov    0xc(%ebp),%ebx

	while (n-- > 0) {
		if (*s1 != *s2)
			return (int) *s1 - (int) *s2;
		s1++, s2++;
  8013c4:	8b 55 10             	mov    0x10(%ebp),%edx
  8013c7:	4a                   	dec    %edx
  8013c8:	83 fa ff             	cmp    $0xffffffff,%edx
  8013cb:	74 1a                	je     8013e7 <memcmp+0x2d>
  8013cd:	8a 01                	mov    (%ecx),%al
  8013cf:	3a 03                	cmp    (%ebx),%al
  8013d1:	74 0c                	je     8013df <memcmp+0x25>
  8013d3:	0f b6 d0             	movzbl %al,%edx
  8013d6:	0f b6 03             	movzbl (%ebx),%eax
  8013d9:	29 c2                	sub    %eax,%edx
  8013db:	89 d0                	mov    %edx,%eax
  8013dd:	eb 0d                	jmp    8013ec <memcmp+0x32>
  8013df:	41                   	inc    %ecx
  8013e0:	43                   	inc    %ebx
  8013e1:	4a                   	dec    %edx
  8013e2:	83 fa ff             	cmp    $0xffffffff,%edx
  8013e5:	75 e6                	jne    8013cd <memcmp+0x13>
	}

	return 0;
  8013e7:	b8 00 00 00 00       	mov    $0x0,%eax
}
  8013ec:	5b                   	pop    %ebx
  8013ed:	c9                   	leave  
  8013ee:	c3                   	ret    

008013ef <memfind>:

void *
memfind(const void *s, int c, size_t n)
{
  8013ef:	55                   	push   %ebp
  8013f0:	89 e5                	mov    %esp,%ebp
  8013f2:	8b 45 08             	mov    0x8(%ebp),%eax
  8013f5:	8b 4d 0c             	mov    0xc(%ebp),%ecx
	const void *ends = (const char *) s + n;
  8013f8:	89 c2                	mov    %eax,%edx
  8013fa:	03 55 10             	add    0x10(%ebp),%edx
	for (; s < ends; s++)
  8013fd:	39 d0                	cmp    %edx,%eax
  8013ff:	73 09                	jae    80140a <memfind+0x1b>
		if (*(const unsigned char *) s == (unsigned char) c)
  801401:	38 08                	cmp    %cl,(%eax)
  801403:	74 05                	je     80140a <memfind+0x1b>
  801405:	40                   	inc    %eax
  801406:	39 d0                	cmp    %edx,%eax
  801408:	72 f7                	jb     801401 <memfind+0x12>
			break;
	return (void *) s;
}
  80140a:	c9                   	leave  
  80140b:	c3                   	ret    

0080140c <strtol>:

long
strtol(const char *s, char **endptr, int base)
{
  80140c:	55                   	push   %ebp
  80140d:	89 e5                	mov    %esp,%ebp
  80140f:	57                   	push   %edi
  801410:	56                   	push   %esi
  801411:	53                   	push   %ebx
  801412:	8b 55 08             	mov    0x8(%ebp),%edx
  801415:	8b 75 0c             	mov    0xc(%ebp),%esi
  801418:	8b 4d 10             	mov    0x10(%ebp),%ecx
	int neg = 0;
  80141b:	bf 00 00 00 00       	mov    $0x0,%edi
	long val = 0;
  801420:	bb 00 00 00 00       	mov    $0x0,%ebx

	// gobble initial whitespace
	while (*s == ' ' || *s == '\t')
		s++;
  801425:	80 3a 20             	cmpb   $0x20,(%edx)
  801428:	74 05                	je     80142f <strtol+0x23>
  80142a:	80 3a 09             	cmpb   $0x9,(%edx)
  80142d:	75 0b                	jne    80143a <strtol+0x2e>
  80142f:	42                   	inc    %edx
  801430:	80 3a 20             	cmpb   $0x20,(%edx)
  801433:	74 fa                	je     80142f <strtol+0x23>
  801435:	80 3a 09             	cmpb   $0x9,(%edx)
  801438:	74 f5                	je     80142f <strtol+0x23>

	// plus/minus sign
	if (*s == '+')
  80143a:	80 3a 2b             	cmpb   $0x2b,(%edx)
  80143d:	75 03                	jne    801442 <strtol+0x36>
		s++;
  80143f:	42                   	inc    %edx
  801440:	eb 0b                	jmp    80144d <strtol+0x41>
	else if (*s == '-')
  801442:	80 3a 2d             	cmpb   $0x2d,(%edx)
  801445:	75 06                	jne    80144d <strtol+0x41>
		s++, neg = 1;
  801447:	42                   	inc    %edx
  801448:	bf 01 00 00 00       	mov    $0x1,%edi

	// hex or octal base prefix
	if ((base == 0 || base == 16) && (s[0] == '0' && s[1] == 'x'))
  80144d:	85 c9                	test   %ecx,%ecx
  80144f:	74 05                	je     801456 <strtol+0x4a>
  801451:	83 f9 10             	cmp    $0x10,%ecx
  801454:	75 15                	jne    80146b <strtol+0x5f>
  801456:	80 3a 30             	cmpb   $0x30,(%edx)
  801459:	75 10                	jne    80146b <strtol+0x5f>
  80145b:	80 7a 01 78          	cmpb   $0x78,0x1(%edx)
  80145f:	75 0a                	jne    80146b <strtol+0x5f>
		s += 2, base = 16;
  801461:	83 c2 02             	add    $0x2,%edx
  801464:	b9 10 00 00 00       	mov    $0x10,%ecx
  801469:	eb 14                	jmp    80147f <strtol+0x73>
	else if (base == 0 && s[0] == '0')
  80146b:	85 c9                	test   %ecx,%ecx
  80146d:	75 10                	jne    80147f <strtol+0x73>
  80146f:	80 3a 30             	cmpb   $0x30,(%edx)
  801472:	75 05                	jne    801479 <strtol+0x6d>
		s++, base = 8;
  801474:	42                   	inc    %edx
  801475:	b1 08                	mov    $0x8,%cl
  801477:	eb 06                	jmp    80147f <strtol+0x73>
	else if (base == 0)
  801479:	85 c9                	test   %ecx,%ecx
  80147b:	75 02                	jne    80147f <strtol+0x73>
		base = 10;
  80147d:	b1 0a                	mov    $0xa,%cl

	// digits
	while (1) {
		int dig;

		if (*s >= '0' && *s <= '9')
  80147f:	8a 02                	mov    (%edx),%al
  801481:	83 e8 30             	sub    $0x30,%eax
  801484:	3c 09                	cmp    $0x9,%al
  801486:	77 08                	ja     801490 <strtol+0x84>
			dig = *s - '0';
  801488:	0f be 02             	movsbl (%edx),%eax
  80148b:	83 e8 30             	sub    $0x30,%eax
  80148e:	eb 20                	jmp    8014b0 <strtol+0xa4>
		else if (*s >= 'a' && *s <= 'z')
  801490:	8a 02                	mov    (%edx),%al
  801492:	83 e8 61             	sub    $0x61,%eax
  801495:	3c 19                	cmp    $0x19,%al
  801497:	77 08                	ja     8014a1 <strtol+0x95>
			dig = *s - 'a' + 10;
  801499:	0f be 02             	movsbl (%edx),%eax
  80149c:	83 e8 57             	sub    $0x57,%eax
  80149f:	eb 0f                	jmp    8014b0 <strtol+0xa4>
		else if (*s >= 'A' && *s <= 'Z')
  8014a1:	8a 02                	mov    (%edx),%al
  8014a3:	83 e8 41             	sub    $0x41,%eax
  8014a6:	3c 19                	cmp    $0x19,%al
  8014a8:	77 12                	ja     8014bc <strtol+0xb0>
			dig = *s - 'A' + 10;
  8014aa:	0f be 02             	movsbl (%edx),%eax
  8014ad:	83 e8 37             	sub    $0x37,%eax
		else
			break;
		if (dig >= base)
  8014b0:	39 c8                	cmp    %ecx,%eax
  8014b2:	7d 08                	jge    8014bc <strtol+0xb0>
			break;
		s++, val = (val * base) + dig;
  8014b4:	42                   	inc    %edx
  8014b5:	0f af d9             	imul   %ecx,%ebx
  8014b8:	01 c3                	add    %eax,%ebx
  8014ba:	eb c3                	jmp    80147f <strtol+0x73>
		// we don't properly detect overflow!
	}

	if (endptr)
  8014bc:	85 f6                	test   %esi,%esi
  8014be:	74 02                	je     8014c2 <strtol+0xb6>
		*endptr = (char *) s;
  8014c0:	89 16                	mov    %edx,(%esi)
	return (neg ? -val : val);
  8014c2:	89 d8                	mov    %ebx,%eax
  8014c4:	85 ff                	test   %edi,%edi
  8014c6:	74 02                	je     8014ca <strtol+0xbe>
  8014c8:	f7 d8                	neg    %eax
}
  8014ca:	5b                   	pop    %ebx
  8014cb:	5e                   	pop    %esi
  8014cc:	5f                   	pop    %edi
  8014cd:	c9                   	leave  
  8014ce:	c3                   	ret    
	...

008014d0 <sys_cputs>:
}

void
sys_cputs(const char *s, size_t len)
{
  8014d0:	55                   	push   %ebp
  8014d1:	89 e5                	mov    %esp,%ebp
  8014d3:	57                   	push   %edi
  8014d4:	56                   	push   %esi
  8014d5:	53                   	push   %ebx
  8014d6:	83 ec 04             	sub    $0x4,%esp
  8014d9:	8b 55 08             	mov    0x8(%ebp),%edx
  8014dc:	8b 4d 0c             	mov    0xc(%ebp),%ecx
  8014df:	bf 00 00 00 00       	mov    $0x0,%edi
  8014e4:	89 f8                	mov    %edi,%eax
  8014e6:	89 fb                	mov    %edi,%ebx
  8014e8:	89 fe                	mov    %edi,%esi
  8014ea:	cd 30                	int    $0x30
	syscall(SYS_cputs, 0, (uint32_t)s, len, 0, 0, 0);
}
  8014ec:	83 c4 04             	add    $0x4,%esp
  8014ef:	5b                   	pop    %ebx
  8014f0:	5e                   	pop    %esi
  8014f1:	5f                   	pop    %edi
  8014f2:	c9                   	leave  
  8014f3:	c3                   	ret    

008014f4 <sys_cgetc>:

int
sys_cgetc(void)
{
  8014f4:	55                   	push   %ebp
  8014f5:	89 e5                	mov    %esp,%ebp
  8014f7:	57                   	push   %edi
  8014f8:	56                   	push   %esi
  8014f9:	53                   	push   %ebx
  8014fa:	b8 01 00 00 00       	mov    $0x1,%eax
  8014ff:	bf 00 00 00 00       	mov    $0x0,%edi
  801504:	89 fa                	mov    %edi,%edx
  801506:	89 f9                	mov    %edi,%ecx
  801508:	89 fb                	mov    %edi,%ebx
  80150a:	89 fe                	mov    %edi,%esi
  80150c:	cd 30                	int    $0x30
	return syscall(SYS_cgetc, 0, 0, 0, 0, 0, 0);
}
  80150e:	5b                   	pop    %ebx
  80150f:	5e                   	pop    %esi
  801510:	5f                   	pop    %edi
  801511:	c9                   	leave  
  801512:	c3                   	ret    

00801513 <sys_env_destroy>:

int
sys_env_destroy(envid_t envid)
{
  801513:	55                   	push   %ebp
  801514:	89 e5                	mov    %esp,%ebp
  801516:	57                   	push   %edi
  801517:	56                   	push   %esi
  801518:	53                   	push   %ebx
  801519:	83 ec 0c             	sub    $0xc,%esp
  80151c:	8b 55 08             	mov    0x8(%ebp),%edx
  80151f:	b8 03 00 00 00       	mov    $0x3,%eax
  801524:	bf 00 00 00 00       	mov    $0x0,%edi
  801529:	89 f9                	mov    %edi,%ecx
  80152b:	89 fb                	mov    %edi,%ebx
  80152d:	89 fe                	mov    %edi,%esi
  80152f:	cd 30                	int    $0x30
  801531:	85 c0                	test   %eax,%eax
  801533:	7e 17                	jle    80154c <sys_env_destroy+0x39>
  801535:	83 ec 0c             	sub    $0xc,%esp
  801538:	50                   	push   %eax
  801539:	6a 03                	push   $0x3
  80153b:	68 70 20 81 00       	push   $0x812070
  801540:	6a 23                	push   $0x23
  801542:	68 8d 20 81 00       	push   $0x81208d
  801547:	e8 80 f5 ff ff       	call   800acc <_panic>
	return syscall(SYS_env_destroy, 1, envid, 0, 0, 0, 0);
}
  80154c:	8d 65 f4             	lea    0xfffffff4(%ebp),%esp
  80154f:	5b                   	pop    %ebx
  801550:	5e                   	pop    %esi
  801551:	5f                   	pop    %edi
  801552:	c9                   	leave  
  801553:	c3                   	ret    

00801554 <sys_getenvid>:

envid_t
sys_getenvid(void)
{
  801554:	55                   	push   %ebp
  801555:	89 e5                	mov    %esp,%ebp
  801557:	57                   	push   %edi
  801558:	56                   	push   %esi
  801559:	53                   	push   %ebx
  80155a:	b8 02 00 00 00       	mov    $0x2,%eax
  80155f:	bf 00 00 00 00       	mov    $0x0,%edi
  801564:	89 fa                	mov    %edi,%edx
  801566:	89 f9                	mov    %edi,%ecx
  801568:	89 fb                	mov    %edi,%ebx
  80156a:	89 fe                	mov    %edi,%esi
  80156c:	cd 30                	int    $0x30
	 return syscall(SYS_getenvid, 0, 0, 0, 0, 0, 0);
}
  80156e:	5b                   	pop    %ebx
  80156f:	5e                   	pop    %esi
  801570:	5f                   	pop    %edi
  801571:	c9                   	leave  
  801572:	c3                   	ret    

00801573 <sys_yield>:

void
sys_yield(void)
{
  801573:	55                   	push   %ebp
  801574:	89 e5                	mov    %esp,%ebp
  801576:	57                   	push   %edi
  801577:	56                   	push   %esi
  801578:	53                   	push   %ebx
  801579:	b8 0b 00 00 00       	mov    $0xb,%eax
  80157e:	bf 00 00 00 00       	mov    $0x0,%edi
  801583:	89 fa                	mov    %edi,%edx
  801585:	89 f9                	mov    %edi,%ecx
  801587:	89 fb                	mov    %edi,%ebx
  801589:	89 fe                	mov    %edi,%esi
  80158b:	cd 30                	int    $0x30
	syscall(SYS_yield, 0, 0, 0, 0, 0, 0);
}
  80158d:	5b                   	pop    %ebx
  80158e:	5e                   	pop    %esi
  80158f:	5f                   	pop    %edi
  801590:	c9                   	leave  
  801591:	c3                   	ret    

00801592 <sys_page_alloc>:

int
sys_page_alloc(envid_t envid, void *va, int perm)
{
  801592:	55                   	push   %ebp
  801593:	89 e5                	mov    %esp,%ebp
  801595:	57                   	push   %edi
  801596:	56                   	push   %esi
  801597:	53                   	push   %ebx
  801598:	83 ec 0c             	sub    $0xc,%esp
  80159b:	8b 55 08             	mov    0x8(%ebp),%edx
  80159e:	8b 4d 0c             	mov    0xc(%ebp),%ecx
  8015a1:	8b 5d 10             	mov    0x10(%ebp),%ebx
  8015a4:	b8 04 00 00 00       	mov    $0x4,%eax
  8015a9:	bf 00 00 00 00       	mov    $0x0,%edi
  8015ae:	89 fe                	mov    %edi,%esi
  8015b0:	cd 30                	int    $0x30
  8015b2:	85 c0                	test   %eax,%eax
  8015b4:	7e 17                	jle    8015cd <sys_page_alloc+0x3b>
  8015b6:	83 ec 0c             	sub    $0xc,%esp
  8015b9:	50                   	push   %eax
  8015ba:	6a 04                	push   $0x4
  8015bc:	68 70 20 81 00       	push   $0x812070
  8015c1:	6a 23                	push   $0x23
  8015c3:	68 8d 20 81 00       	push   $0x81208d
  8015c8:	e8 ff f4 ff ff       	call   800acc <_panic>
	return syscall(SYS_page_alloc, 1, envid, (uint32_t) va, perm, 0, 0);
}
  8015cd:	8d 65 f4             	lea    0xfffffff4(%ebp),%esp
  8015d0:	5b                   	pop    %ebx
  8015d1:	5e                   	pop    %esi
  8015d2:	5f                   	pop    %edi
  8015d3:	c9                   	leave  
  8015d4:	c3                   	ret    

008015d5 <sys_page_map>:

int
sys_page_map(envid_t srcenv, void *srcva, envid_t dstenv, void *dstva, int perm)
{
  8015d5:	55                   	push   %ebp
  8015d6:	89 e5                	mov    %esp,%ebp
  8015d8:	57                   	push   %edi
  8015d9:	56                   	push   %esi
  8015da:	53                   	push   %ebx
  8015db:	83 ec 0c             	sub    $0xc,%esp
  8015de:	8b 55 08             	mov    0x8(%ebp),%edx
  8015e1:	8b 4d 0c             	mov    0xc(%ebp),%ecx
  8015e4:	8b 5d 10             	mov    0x10(%ebp),%ebx
  8015e7:	8b 7d 14             	mov    0x14(%ebp),%edi
  8015ea:	8b 75 18             	mov    0x18(%ebp),%esi
  8015ed:	b8 05 00 00 00       	mov    $0x5,%eax
  8015f2:	cd 30                	int    $0x30
  8015f4:	85 c0                	test   %eax,%eax
  8015f6:	7e 17                	jle    80160f <sys_page_map+0x3a>
  8015f8:	83 ec 0c             	sub    $0xc,%esp
  8015fb:	50                   	push   %eax
  8015fc:	6a 05                	push   $0x5
  8015fe:	68 70 20 81 00       	push   $0x812070
  801603:	6a 23                	push   $0x23
  801605:	68 8d 20 81 00       	push   $0x81208d
  80160a:	e8 bd f4 ff ff       	call   800acc <_panic>
	return syscall(SYS_page_map, 1, srcenv, (uint32_t) srcva, dstenv, (uint32_t) dstva, perm);
}
  80160f:	8d 65 f4             	lea    0xfffffff4(%ebp),%esp
  801612:	5b                   	pop    %ebx
  801613:	5e                   	pop    %esi
  801614:	5f                   	pop    %edi
  801615:	c9                   	leave  
  801616:	c3                   	ret    

00801617 <sys_page_unmap>:

int
sys_page_unmap(envid_t envid, void *va)
{
  801617:	55                   	push   %ebp
  801618:	89 e5                	mov    %esp,%ebp
  80161a:	57                   	push   %edi
  80161b:	56                   	push   %esi
  80161c:	53                   	push   %ebx
  80161d:	83 ec 0c             	sub    $0xc,%esp
  801620:	8b 55 08             	mov    0x8(%ebp),%edx
  801623:	8b 4d 0c             	mov    0xc(%ebp),%ecx
  801626:	b8 06 00 00 00       	mov    $0x6,%eax
  80162b:	bf 00 00 00 00       	mov    $0x0,%edi
  801630:	89 fb                	mov    %edi,%ebx
  801632:	89 fe                	mov    %edi,%esi
  801634:	cd 30                	int    $0x30
  801636:	85 c0                	test   %eax,%eax
  801638:	7e 17                	jle    801651 <sys_page_unmap+0x3a>
  80163a:	83 ec 0c             	sub    $0xc,%esp
  80163d:	50                   	push   %eax
  80163e:	6a 06                	push   $0x6
  801640:	68 70 20 81 00       	push   $0x812070
  801645:	6a 23                	push   $0x23
  801647:	68 8d 20 81 00       	push   $0x81208d
  80164c:	e8 7b f4 ff ff       	call   800acc <_panic>
	return syscall(SYS_page_unmap, 1, envid, (uint32_t) va, 0, 0, 0);
}
  801651:	8d 65 f4             	lea    0xfffffff4(%ebp),%esp
  801654:	5b                   	pop    %ebx
  801655:	5e                   	pop    %esi
  801656:	5f                   	pop    %edi
  801657:	c9                   	leave  
  801658:	c3                   	ret    

00801659 <sys_env_set_status>:

// sys_exofork is inlined in lib.h

int
sys_env_set_status(envid_t envid, int status)
{
  801659:	55                   	push   %ebp
  80165a:	89 e5                	mov    %esp,%ebp
  80165c:	57                   	push   %edi
  80165d:	56                   	push   %esi
  80165e:	53                   	push   %ebx
  80165f:	83 ec 0c             	sub    $0xc,%esp
  801662:	8b 55 08             	mov    0x8(%ebp),%edx
  801665:	8b 4d 0c             	mov    0xc(%ebp),%ecx
  801668:	b8 08 00 00 00       	mov    $0x8,%eax
  80166d:	bf 00 00 00 00       	mov    $0x0,%edi
  801672:	89 fb                	mov    %edi,%ebx
  801674:	89 fe                	mov    %edi,%esi
  801676:	cd 30                	int    $0x30
  801678:	85 c0                	test   %eax,%eax
  80167a:	7e 17                	jle    801693 <sys_env_set_status+0x3a>
  80167c:	83 ec 0c             	sub    $0xc,%esp
  80167f:	50                   	push   %eax
  801680:	6a 08                	push   $0x8
  801682:	68 70 20 81 00       	push   $0x812070
  801687:	6a 23                	push   $0x23
  801689:	68 8d 20 81 00       	push   $0x81208d
  80168e:	e8 39 f4 ff ff       	call   800acc <_panic>
	return syscall(SYS_env_set_status, 1, envid, status, 0, 0, 0);
}
  801693:	8d 65 f4             	lea    0xfffffff4(%ebp),%esp
  801696:	5b                   	pop    %ebx
  801697:	5e                   	pop    %esi
  801698:	5f                   	pop    %edi
  801699:	c9                   	leave  
  80169a:	c3                   	ret    

0080169b <sys_env_set_trapframe>:

int
sys_env_set_trapframe(envid_t envid, struct Trapframe *tf)
{
  80169b:	55                   	push   %ebp
  80169c:	89 e5                	mov    %esp,%ebp
  80169e:	57                   	push   %edi
  80169f:	56                   	push   %esi
  8016a0:	53                   	push   %ebx
  8016a1:	83 ec 0c             	sub    $0xc,%esp
  8016a4:	8b 55 08             	mov    0x8(%ebp),%edx
  8016a7:	8b 4d 0c             	mov    0xc(%ebp),%ecx
  8016aa:	b8 09 00 00 00       	mov    $0x9,%eax
  8016af:	bf 00 00 00 00       	mov    $0x0,%edi
  8016b4:	89 fb                	mov    %edi,%ebx
  8016b6:	89 fe                	mov    %edi,%esi
  8016b8:	cd 30                	int    $0x30
  8016ba:	85 c0                	test   %eax,%eax
  8016bc:	7e 17                	jle    8016d5 <sys_env_set_trapframe+0x3a>
  8016be:	83 ec 0c             	sub    $0xc,%esp
  8016c1:	50                   	push   %eax
  8016c2:	6a 09                	push   $0x9
  8016c4:	68 70 20 81 00       	push   $0x812070
  8016c9:	6a 23                	push   $0x23
  8016cb:	68 8d 20 81 00       	push   $0x81208d
  8016d0:	e8 f7 f3 ff ff       	call   800acc <_panic>
	return syscall(SYS_env_set_trapframe, 1, envid, (uint32_t) tf, 0, 0, 0);
}
  8016d5:	8d 65 f4             	lea    0xfffffff4(%ebp),%esp
  8016d8:	5b                   	pop    %ebx
  8016d9:	5e                   	pop    %esi
  8016da:	5f                   	pop    %edi
  8016db:	c9                   	leave  
  8016dc:	c3                   	ret    

008016dd <sys_env_set_pgfault_upcall>:

int
sys_env_set_pgfault_upcall(envid_t envid, void *upcall)
{
  8016dd:	55                   	push   %ebp
  8016de:	89 e5                	mov    %esp,%ebp
  8016e0:	57                   	push   %edi
  8016e1:	56                   	push   %esi
  8016e2:	53                   	push   %ebx
  8016e3:	83 ec 0c             	sub    $0xc,%esp
  8016e6:	8b 55 08             	mov    0x8(%ebp),%edx
  8016e9:	8b 4d 0c             	mov    0xc(%ebp),%ecx
  8016ec:	b8 0a 00 00 00       	mov    $0xa,%eax
  8016f1:	bf 00 00 00 00       	mov    $0x0,%edi
  8016f6:	89 fb                	mov    %edi,%ebx
  8016f8:	89 fe                	mov    %edi,%esi
  8016fa:	cd 30                	int    $0x30
  8016fc:	85 c0                	test   %eax,%eax
  8016fe:	7e 17                	jle    801717 <sys_env_set_pgfault_upcall+0x3a>
  801700:	83 ec 0c             	sub    $0xc,%esp
  801703:	50                   	push   %eax
  801704:	6a 0a                	push   $0xa
  801706:	68 70 20 81 00       	push   $0x812070
  80170b:	6a 23                	push   $0x23
  80170d:	68 8d 20 81 00       	push   $0x81208d
  801712:	e8 b5 f3 ff ff       	call   800acc <_panic>
	return syscall(SYS_env_set_pgfault_upcall, 1, envid, (uint32_t) upcall, 0, 0, 0);
}
  801717:	8d 65 f4             	lea    0xfffffff4(%ebp),%esp
  80171a:	5b                   	pop    %ebx
  80171b:	5e                   	pop    %esi
  80171c:	5f                   	pop    %edi
  80171d:	c9                   	leave  
  80171e:	c3                   	ret    

0080171f <sys_ipc_try_send>:

int
sys_ipc_try_send(envid_t envid, uint32_t value, void *srcva, int perm)
{
  80171f:	55                   	push   %ebp
  801720:	89 e5                	mov    %esp,%ebp
  801722:	57                   	push   %edi
  801723:	56                   	push   %esi
  801724:	53                   	push   %ebx
  801725:	8b 55 08             	mov    0x8(%ebp),%edx
  801728:	8b 4d 0c             	mov    0xc(%ebp),%ecx
  80172b:	8b 5d 10             	mov    0x10(%ebp),%ebx
  80172e:	8b 7d 14             	mov    0x14(%ebp),%edi
  801731:	b8 0c 00 00 00       	mov    $0xc,%eax
  801736:	be 00 00 00 00       	mov    $0x0,%esi
  80173b:	cd 30                	int    $0x30
	return syscall(SYS_ipc_try_send, 0, envid, value, (uint32_t) srcva, perm, 0);
}
  80173d:	5b                   	pop    %ebx
  80173e:	5e                   	pop    %esi
  80173f:	5f                   	pop    %edi
  801740:	c9                   	leave  
  801741:	c3                   	ret    

00801742 <sys_ipc_recv>:

int
sys_ipc_recv(void *dstva)
{
  801742:	55                   	push   %ebp
  801743:	89 e5                	mov    %esp,%ebp
  801745:	57                   	push   %edi
  801746:	56                   	push   %esi
  801747:	53                   	push   %ebx
  801748:	83 ec 0c             	sub    $0xc,%esp
  80174b:	8b 55 08             	mov    0x8(%ebp),%edx
  80174e:	b8 0d 00 00 00       	mov    $0xd,%eax
  801753:	bf 00 00 00 00       	mov    $0x0,%edi
  801758:	89 f9                	mov    %edi,%ecx
  80175a:	89 fb                	mov    %edi,%ebx
  80175c:	89 fe                	mov    %edi,%esi
  80175e:	cd 30                	int    $0x30
  801760:	85 c0                	test   %eax,%eax
  801762:	7e 17                	jle    80177b <sys_ipc_recv+0x39>
  801764:	83 ec 0c             	sub    $0xc,%esp
  801767:	50                   	push   %eax
  801768:	6a 0d                	push   $0xd
  80176a:	68 70 20 81 00       	push   $0x812070
  80176f:	6a 23                	push   $0x23
  801771:	68 8d 20 81 00       	push   $0x81208d
  801776:	e8 51 f3 ff ff       	call   800acc <_panic>
	return syscall(SYS_ipc_recv, 1, (uint32_t)dstva, 0, 0, 0, 0);
}
  80177b:	8d 65 f4             	lea    0xfffffff4(%ebp),%esp
  80177e:	5b                   	pop    %ebx
  80177f:	5e                   	pop    %esi
  801780:	5f                   	pop    %edi
  801781:	c9                   	leave  
  801782:	c3                   	ret    

00801783 <sys_transmit_packet>:

int
sys_transmit_packet(char* packet, int pktsize)
{
  801783:	55                   	push   %ebp
  801784:	89 e5                	mov    %esp,%ebp
  801786:	57                   	push   %edi
  801787:	56                   	push   %esi
  801788:	53                   	push   %ebx
  801789:	83 ec 0c             	sub    $0xc,%esp
  80178c:	8b 55 08             	mov    0x8(%ebp),%edx
  80178f:	8b 4d 0c             	mov    0xc(%ebp),%ecx
  801792:	b8 10 00 00 00       	mov    $0x10,%eax
  801797:	bf 00 00 00 00       	mov    $0x0,%edi
  80179c:	89 fb                	mov    %edi,%ebx
  80179e:	89 fe                	mov    %edi,%esi
  8017a0:	cd 30                	int    $0x30
  8017a2:	85 c0                	test   %eax,%eax
  8017a4:	7e 17                	jle    8017bd <sys_transmit_packet+0x3a>
  8017a6:	83 ec 0c             	sub    $0xc,%esp
  8017a9:	50                   	push   %eax
  8017aa:	6a 10                	push   $0x10
  8017ac:	68 70 20 81 00       	push   $0x812070
  8017b1:	6a 23                	push   $0x23
  8017b3:	68 8d 20 81 00       	push   $0x81208d
  8017b8:	e8 0f f3 ff ff       	call   800acc <_panic>
	return syscall(SYS_transmit_packet, 1, (uint32_t) packet, pktsize, 0, 0, 0);
}
  8017bd:	8d 65 f4             	lea    0xfffffff4(%ebp),%esp
  8017c0:	5b                   	pop    %ebx
  8017c1:	5e                   	pop    %esi
  8017c2:	5f                   	pop    %edi
  8017c3:	c9                   	leave  
  8017c4:	c3                   	ret    

008017c5 <sys_receive_packet>:

int
sys_receive_packet(char* packet, int* size)
{
  8017c5:	55                   	push   %ebp
  8017c6:	89 e5                	mov    %esp,%ebp
  8017c8:	57                   	push   %edi
  8017c9:	56                   	push   %esi
  8017ca:	53                   	push   %ebx
  8017cb:	83 ec 0c             	sub    $0xc,%esp
  8017ce:	8b 55 08             	mov    0x8(%ebp),%edx
  8017d1:	8b 4d 0c             	mov    0xc(%ebp),%ecx
  8017d4:	b8 11 00 00 00       	mov    $0x11,%eax
  8017d9:	bf 00 00 00 00       	mov    $0x0,%edi
  8017de:	89 fb                	mov    %edi,%ebx
  8017e0:	89 fe                	mov    %edi,%esi
  8017e2:	cd 30                	int    $0x30
  8017e4:	85 c0                	test   %eax,%eax
  8017e6:	7e 17                	jle    8017ff <sys_receive_packet+0x3a>
  8017e8:	83 ec 0c             	sub    $0xc,%esp
  8017eb:	50                   	push   %eax
  8017ec:	6a 11                	push   $0x11
  8017ee:	68 70 20 81 00       	push   $0x812070
  8017f3:	6a 23                	push   $0x23
  8017f5:	68 8d 20 81 00       	push   $0x81208d
  8017fa:	e8 cd f2 ff ff       	call   800acc <_panic>
	return syscall(SYS_receive_packet, 1, (uint32_t) packet, (uint32_t) size, 0, 0, 0);
}
  8017ff:	8d 65 f4             	lea    0xfffffff4(%ebp),%esp
  801802:	5b                   	pop    %ebx
  801803:	5e                   	pop    %esi
  801804:	5f                   	pop    %edi
  801805:	c9                   	leave  
  801806:	c3                   	ret    

00801807 <sys_time_msec>:

unsigned int
sys_time_msec(void)
{
  801807:	55                   	push   %ebp
  801808:	89 e5                	mov    %esp,%ebp
  80180a:	57                   	push   %edi
  80180b:	56                   	push   %esi
  80180c:	53                   	push   %ebx
  80180d:	b8 0f 00 00 00       	mov    $0xf,%eax
  801812:	bf 00 00 00 00       	mov    $0x0,%edi
  801817:	89 fa                	mov    %edi,%edx
  801819:	89 f9                	mov    %edi,%ecx
  80181b:	89 fb                	mov    %edi,%ebx
  80181d:	89 fe                	mov    %edi,%esi
  80181f:	cd 30                	int    $0x30
	return (unsigned int) syscall(SYS_time_msec, 0, 0, 0, 0, 0, 0);
}
  801821:	5b                   	pop    %ebx
  801822:	5e                   	pop    %esi
  801823:	5f                   	pop    %edi
  801824:	c9                   	leave  
  801825:	c3                   	ret    

00801826 <sys_map_receive_buffers>:

// Lab 6: Challenge
int
sys_map_receive_buffers(char* first_buffer)
{
  801826:	55                   	push   %ebp
  801827:	89 e5                	mov    %esp,%ebp
  801829:	57                   	push   %edi
  80182a:	56                   	push   %esi
  80182b:	53                   	push   %ebx
  80182c:	83 ec 0c             	sub    $0xc,%esp
  80182f:	8b 55 08             	mov    0x8(%ebp),%edx
  801832:	b8 0e 00 00 00       	mov    $0xe,%eax
  801837:	bf 00 00 00 00       	mov    $0x0,%edi
  80183c:	89 f9                	mov    %edi,%ecx
  80183e:	89 fb                	mov    %edi,%ebx
  801840:	89 fe                	mov    %edi,%esi
  801842:	cd 30                	int    $0x30
  801844:	85 c0                	test   %eax,%eax
  801846:	7e 17                	jle    80185f <sys_map_receive_buffers+0x39>
  801848:	83 ec 0c             	sub    $0xc,%esp
  80184b:	50                   	push   %eax
  80184c:	6a 0e                	push   $0xe
  80184e:	68 70 20 81 00       	push   $0x812070
  801853:	6a 23                	push   $0x23
  801855:	68 8d 20 81 00       	push   $0x81208d
  80185a:	e8 6d f2 ff ff       	call   800acc <_panic>
	return syscall(SYS_map_receive_buffers, 1, (uint32_t) first_buffer, 0, 0, 0, 0);
}
  80185f:	8d 65 f4             	lea    0xfffffff4(%ebp),%esp
  801862:	5b                   	pop    %ebx
  801863:	5e                   	pop    %esi
  801864:	5f                   	pop    %edi
  801865:	c9                   	leave  
  801866:	c3                   	ret    

00801867 <sys_receive_packet_zerocopy>:
int
sys_receive_packet_zerocopy(int* packetidx)
{
  801867:	55                   	push   %ebp
  801868:	89 e5                	mov    %esp,%ebp
  80186a:	57                   	push   %edi
  80186b:	56                   	push   %esi
  80186c:	53                   	push   %ebx
  80186d:	83 ec 0c             	sub    $0xc,%esp
  801870:	8b 55 08             	mov    0x8(%ebp),%edx
  801873:	b8 12 00 00 00       	mov    $0x12,%eax
  801878:	bf 00 00 00 00       	mov    $0x0,%edi
  80187d:	89 f9                	mov    %edi,%ecx
  80187f:	89 fb                	mov    %edi,%ebx
  801881:	89 fe                	mov    %edi,%esi
  801883:	cd 30                	int    $0x30
  801885:	85 c0                	test   %eax,%eax
  801887:	7e 17                	jle    8018a0 <sys_receive_packet_zerocopy+0x39>
  801889:	83 ec 0c             	sub    $0xc,%esp
  80188c:	50                   	push   %eax
  80188d:	6a 12                	push   $0x12
  80188f:	68 70 20 81 00       	push   $0x812070
  801894:	6a 23                	push   $0x23
  801896:	68 8d 20 81 00       	push   $0x81208d
  80189b:	e8 2c f2 ff ff       	call   800acc <_panic>
	return syscall(SYS_receive_packet_zerocopy, 1, (uint32_t) packetidx, 0, 0, 0, 0);
}
  8018a0:	8d 65 f4             	lea    0xfffffff4(%ebp),%esp
  8018a3:	5b                   	pop    %ebx
  8018a4:	5e                   	pop    %esi
  8018a5:	5f                   	pop    %edi
  8018a6:	c9                   	leave  
  8018a7:	c3                   	ret    

008018a8 <sys_env_set_priority>:

// Lab 4: Challenge
int
sys_env_set_priority(envid_t envid, int priority)
{
  8018a8:	55                   	push   %ebp
  8018a9:	89 e5                	mov    %esp,%ebp
  8018ab:	57                   	push   %edi
  8018ac:	56                   	push   %esi
  8018ad:	53                   	push   %ebx
  8018ae:	83 ec 0c             	sub    $0xc,%esp
  8018b1:	8b 55 08             	mov    0x8(%ebp),%edx
  8018b4:	8b 4d 0c             	mov    0xc(%ebp),%ecx
  8018b7:	b8 13 00 00 00       	mov    $0x13,%eax
  8018bc:	bf 00 00 00 00       	mov    $0x0,%edi
  8018c1:	89 fb                	mov    %edi,%ebx
  8018c3:	89 fe                	mov    %edi,%esi
  8018c5:	cd 30                	int    $0x30
  8018c7:	85 c0                	test   %eax,%eax
  8018c9:	7e 17                	jle    8018e2 <sys_env_set_priority+0x3a>
  8018cb:	83 ec 0c             	sub    $0xc,%esp
  8018ce:	50                   	push   %eax
  8018cf:	6a 13                	push   $0x13
  8018d1:	68 70 20 81 00       	push   $0x812070
  8018d6:	6a 23                	push   $0x23
  8018d8:	68 8d 20 81 00       	push   $0x81208d
  8018dd:	e8 ea f1 ff ff       	call   800acc <_panic>
	return syscall(SYS_env_set_priority, 1, envid, priority, 0, 0, 0);
}
  8018e2:	8d 65 f4             	lea    0xfffffff4(%ebp),%esp
  8018e5:	5b                   	pop    %ebx
  8018e6:	5e                   	pop    %esi
  8018e7:	5f                   	pop    %edi
  8018e8:	c9                   	leave  
  8018e9:	c3                   	ret    
	...

008018ec <pgfault>:
// map in our own private writable copy.
//
static void
pgfault(struct UTrapframe *utf)
{
  8018ec:	55                   	push   %ebp
  8018ed:	89 e5                	mov    %esp,%ebp
  8018ef:	53                   	push   %ebx
  8018f0:	83 ec 04             	sub    $0x4,%esp
  8018f3:	8b 45 08             	mov    0x8(%ebp),%eax
	void *addr = (void *) utf->utf_fault_va;
  8018f6:	8b 18                	mov    (%eax),%ebx
	uint32_t err = utf->utf_err;
	int r;

	// Check that the faulting access was (1) a write, and (2) to a
	// copy-on-write page.  If not, panic.
	// Hint:
	//   Use the read-only page table mappings at vpt
	//   (see <inc/memlayout.h>).

	// LAB 4: Your code here.
        // seanyliu
        if (!(err & FEC_WR) || !(vpt[VPN(addr)] & PTE_COW)) {
  8018f8:	f6 40 04 02          	testb  $0x2,0x4(%eax)
  8018fc:	74 11                	je     80190f <pgfault+0x23>
  8018fe:	89 d8                	mov    %ebx,%eax
  801900:	c1 e8 0c             	shr    $0xc,%eax
  801903:	8b 04 85 00 00 40 ef 	mov    0xef400000(,%eax,4),%eax
  80190a:	f6 c4 08             	test   $0x8,%ah
  80190d:	75 14                	jne    801923 <pgfault+0x37>
          panic("pgfault, err != FEC_WR or not copy-on-write page");
  80190f:	83 ec 04             	sub    $0x4,%esp
  801912:	68 9c 20 81 00       	push   $0x81209c
  801917:	6a 1e                	push   $0x1e
  801919:	68 f0 20 81 00       	push   $0x8120f0
  80191e:	e8 a9 f1 ff ff       	call   800acc <_panic>
        }

	// Allocate a new page, map it at a temporary location (PFTEMP),
	// copy the data from the old page to the new page, then move the new
	// page to the old page's address.
	// Hint:
	//   You should make three system calls.
	//   No need to explicitly delete the old page's mapping.

	// LAB 4: Your code here.
        // seanyliu
        addr = ROUNDDOWN(addr, PGSIZE);
  801923:	81 e3 00 f0 ff ff    	and    $0xfffff000,%ebx
	// Allocate a new page, map it at a temporary location (PFTEMP),
        if ((r = sys_page_alloc(sys_getenvid(), (void *)PFTEMP, PTE_U | PTE_W | PTE_P)) < 0) {
  801929:	83 ec 04             	sub    $0x4,%esp
  80192c:	6a 07                	push   $0x7
  80192e:	68 00 f0 7f 00       	push   $0x7ff000
  801933:	83 ec 04             	sub    $0x4,%esp
  801936:	e8 19 fc ff ff       	call   801554 <sys_getenvid>
  80193b:	89 04 24             	mov    %eax,(%esp)
  80193e:	e8 4f fc ff ff       	call   801592 <sys_page_alloc>
  801943:	83 c4 10             	add    $0x10,%esp
  801946:	85 c0                	test   %eax,%eax
  801948:	79 12                	jns    80195c <pgfault+0x70>
          panic("pgfault: sys_page_alloc %d", r);
  80194a:	50                   	push   %eax
  80194b:	68 fb 20 81 00       	push   $0x8120fb
  801950:	6a 2d                	push   $0x2d
  801952:	68 f0 20 81 00       	push   $0x8120f0
  801957:	e8 70 f1 ff ff       	call   800acc <_panic>
        }
	// copy the data from the old page to the new page
        memmove(PFTEMP, addr, PGSIZE);
  80195c:	83 ec 04             	sub    $0x4,%esp
  80195f:	68 00 10 00 00       	push   $0x1000
  801964:	53                   	push   %ebx
  801965:	68 00 f0 7f 00       	push   $0x7ff000
  80196a:	e8 cd f9 ff ff       	call   80133c <memmove>
	// move the new page to the old page's address.
        if ((r = sys_page_map(sys_getenvid(), PFTEMP, sys_getenvid(), addr, PTE_U | PTE_W | PTE_P)) < 0) {
  80196f:	c7 04 24 07 00 00 00 	movl   $0x7,(%esp)
  801976:	53                   	push   %ebx
  801977:	83 ec 0c             	sub    $0xc,%esp
  80197a:	e8 d5 fb ff ff       	call   801554 <sys_getenvid>
  80197f:	83 c4 0c             	add    $0xc,%esp
  801982:	50                   	push   %eax
  801983:	68 00 f0 7f 00       	push   $0x7ff000
  801988:	83 ec 04             	sub    $0x4,%esp
  80198b:	e8 c4 fb ff ff       	call   801554 <sys_getenvid>
  801990:	89 04 24             	mov    %eax,(%esp)
  801993:	e8 3d fc ff ff       	call   8015d5 <sys_page_map>
  801998:	83 c4 20             	add    $0x20,%esp
  80199b:	85 c0                	test   %eax,%eax
  80199d:	79 12                	jns    8019b1 <pgfault+0xc5>
          panic("pgfault: sys_page_map %d", r);
  80199f:	50                   	push   %eax
  8019a0:	68 16 21 81 00       	push   $0x812116
  8019a5:	6a 33                	push   $0x33
  8019a7:	68 f0 20 81 00       	push   $0x8120f0
  8019ac:	e8 1b f1 ff ff       	call   800acc <_panic>
        }
        if ((r = sys_page_unmap(sys_getenvid(), PFTEMP)) < 0) {
  8019b1:	83 ec 08             	sub    $0x8,%esp
  8019b4:	68 00 f0 7f 00       	push   $0x7ff000
  8019b9:	83 ec 04             	sub    $0x4,%esp
  8019bc:	e8 93 fb ff ff       	call   801554 <sys_getenvid>
  8019c1:	89 04 24             	mov    %eax,(%esp)
  8019c4:	e8 4e fc ff ff       	call   801617 <sys_page_unmap>
  8019c9:	83 c4 10             	add    $0x10,%esp
  8019cc:	85 c0                	test   %eax,%eax
  8019ce:	79 12                	jns    8019e2 <pgfault+0xf6>
          panic("pgfault: sys_page_unmap %d", r);
  8019d0:	50                   	push   %eax
  8019d1:	68 2f 21 81 00       	push   $0x81212f
  8019d6:	6a 36                	push   $0x36
  8019d8:	68 f0 20 81 00       	push   $0x8120f0
  8019dd:	e8 ea f0 ff ff       	call   800acc <_panic>
        }

	//panic("pgfault not implemented");
}
  8019e2:	8b 5d fc             	mov    0xfffffffc(%ebp),%ebx
  8019e5:	c9                   	leave  
  8019e6:	c3                   	ret    

008019e7 <duppage>:

//
// Map our virtual page pn (address pn*PGSIZE) into the target envid
// at the same virtual address.  If the page is writable or copy-on-write,
// the new mapping must be created copy-on-write, and then our mapping must be
// marked copy-on-write as well.  (Exercise: Why might we need to mark ours
// copy-on-write again if it was already copy-on-write at the beginning of
// this function?)
//
// Returns: 0 on success, < 0 on error.
// It is also OK to panic on error.
// 
static int
duppage(envid_t envid, unsigned pn)
{
  8019e7:	55                   	push   %ebp
  8019e8:	89 e5                	mov    %esp,%ebp
  8019ea:	53                   	push   %ebx
  8019eb:	83 ec 04             	sub    $0x4,%esp
  8019ee:	8b 4d 08             	mov    0x8(%ebp),%ecx
  8019f1:	8b 5d 0c             	mov    0xc(%ebp),%ebx
	int r;
	// LAB 4: Your code here.
        // seanyliu

        // LAB 7: add in a new if check
        if (vpt[pn] & PTE_SHARE) {
  8019f4:	ba 00 00 40 ef       	mov    $0xef400000,%edx
  8019f9:	8b 04 9a             	mov    (%edx,%ebx,4),%eax
  8019fc:	f6 c4 04             	test   $0x4,%ah
  8019ff:	74 36                	je     801a37 <duppage+0x50>
          if ((r = sys_page_map(sys_getenvid(), (void *)(pn * PGSIZE), envid, (void *)(pn * PGSIZE), vpt[pn] & PTE_USER)) < 0) {
  801a01:	83 ec 0c             	sub    $0xc,%esp
  801a04:	8b 04 9a             	mov    (%edx,%ebx,4),%eax
  801a07:	25 07 0e 00 00       	and    $0xe07,%eax
  801a0c:	50                   	push   %eax
  801a0d:	89 d8                	mov    %ebx,%eax
  801a0f:	c1 e0 0c             	shl    $0xc,%eax
  801a12:	50                   	push   %eax
  801a13:	51                   	push   %ecx
  801a14:	50                   	push   %eax
  801a15:	83 ec 04             	sub    $0x4,%esp
  801a18:	e8 37 fb ff ff       	call   801554 <sys_getenvid>
  801a1d:	89 04 24             	mov    %eax,(%esp)
  801a20:	e8 b0 fb ff ff       	call   8015d5 <sys_page_map>
  801a25:	83 c4 20             	add    $0x20,%esp
            return r;
  801a28:	89 c2                	mov    %eax,%edx
  801a2a:	85 c0                	test   %eax,%eax
  801a2c:	0f 88 c9 00 00 00    	js     801afb <duppage+0x114>
  801a32:	e9 bf 00 00 00       	jmp    801af6 <duppage+0x10f>
          }
        } else if (vpt[pn] & (PTE_W | PTE_COW)) {
  801a37:	8b 04 9d 00 00 40 ef 	mov    0xef400000(,%ebx,4),%eax
  801a3e:	a9 02 08 00 00       	test   $0x802,%eax
  801a43:	74 7b                	je     801ac0 <duppage+0xd9>
          // If the page is writable or copy-on-write, the new mapping must be created copy-on-write
          if ((r = sys_page_map(sys_getenvid(), (void *)(pn*PGSIZE), envid, (void *)(pn*PGSIZE), PTE_U | PTE_COW | PTE_P)) < 0) {
  801a45:	83 ec 0c             	sub    $0xc,%esp
  801a48:	68 05 08 00 00       	push   $0x805
  801a4d:	89 d8                	mov    %ebx,%eax
  801a4f:	c1 e0 0c             	shl    $0xc,%eax
  801a52:	50                   	push   %eax
  801a53:	51                   	push   %ecx
  801a54:	50                   	push   %eax
  801a55:	83 ec 04             	sub    $0x4,%esp
  801a58:	e8 f7 fa ff ff       	call   801554 <sys_getenvid>
  801a5d:	89 04 24             	mov    %eax,(%esp)
  801a60:	e8 70 fb ff ff       	call   8015d5 <sys_page_map>
  801a65:	83 c4 20             	add    $0x20,%esp
  801a68:	85 c0                	test   %eax,%eax
  801a6a:	79 12                	jns    801a7e <duppage+0x97>
            panic("duppage: sys_page_map %d", r);
  801a6c:	50                   	push   %eax
  801a6d:	68 4a 21 81 00       	push   $0x81214a
  801a72:	6a 56                	push   $0x56
  801a74:	68 f0 20 81 00       	push   $0x8120f0
  801a79:	e8 4e f0 ff ff       	call   800acc <_panic>
          }
          // and then our mapping must be marked copy-on-write as well
          //vpt[pn] = vpt[pn] | PTE_COW;
          if ((r = sys_page_map(sys_getenvid(), (void *)(pn*PGSIZE), sys_getenvid(), (void *)(pn*PGSIZE), PTE_U | PTE_COW | PTE_P)) < 0) {
  801a7e:	83 ec 0c             	sub    $0xc,%esp
  801a81:	68 05 08 00 00       	push   $0x805
  801a86:	c1 e3 0c             	shl    $0xc,%ebx
  801a89:	53                   	push   %ebx
  801a8a:	83 ec 0c             	sub    $0xc,%esp
  801a8d:	e8 c2 fa ff ff       	call   801554 <sys_getenvid>
  801a92:	83 c4 0c             	add    $0xc,%esp
  801a95:	50                   	push   %eax
  801a96:	53                   	push   %ebx
  801a97:	83 ec 04             	sub    $0x4,%esp
  801a9a:	e8 b5 fa ff ff       	call   801554 <sys_getenvid>
  801a9f:	89 04 24             	mov    %eax,(%esp)
  801aa2:	e8 2e fb ff ff       	call   8015d5 <sys_page_map>
  801aa7:	83 c4 20             	add    $0x20,%esp
  801aaa:	85 c0                	test   %eax,%eax
  801aac:	79 48                	jns    801af6 <duppage+0x10f>
            panic("duppage: sys_page_map %d", r);
  801aae:	50                   	push   %eax
  801aaf:	68 4a 21 81 00       	push   $0x81214a
  801ab4:	6a 5b                	push   $0x5b
  801ab6:	68 f0 20 81 00       	push   $0x8120f0
  801abb:	e8 0c f0 ff ff       	call   800acc <_panic>
          }
        } else {
          if ((r = sys_page_map(sys_getenvid(), (void *)(pn*PGSIZE), envid, (void *)(pn*PGSIZE), PTE_U | PTE_P)) < 0) {
  801ac0:	83 ec 0c             	sub    $0xc,%esp
  801ac3:	6a 05                	push   $0x5
  801ac5:	89 d8                	mov    %ebx,%eax
  801ac7:	c1 e0 0c             	shl    $0xc,%eax
  801aca:	50                   	push   %eax
  801acb:	51                   	push   %ecx
  801acc:	50                   	push   %eax
  801acd:	83 ec 04             	sub    $0x4,%esp
  801ad0:	e8 7f fa ff ff       	call   801554 <sys_getenvid>
  801ad5:	89 04 24             	mov    %eax,(%esp)
  801ad8:	e8 f8 fa ff ff       	call   8015d5 <sys_page_map>
  801add:	83 c4 20             	add    $0x20,%esp
  801ae0:	85 c0                	test   %eax,%eax
  801ae2:	79 12                	jns    801af6 <duppage+0x10f>
            panic("duppage: sys_page_map %d", r);
  801ae4:	50                   	push   %eax
  801ae5:	68 4a 21 81 00       	push   $0x81214a
  801aea:	6a 5f                	push   $0x5f
  801aec:	68 f0 20 81 00       	push   $0x8120f0
  801af1:	e8 d6 ef ff ff       	call   800acc <_panic>
          }
        }
	//panic("duppage not implemented");
	return 0;
  801af6:	ba 00 00 00 00       	mov    $0x0,%edx
}
  801afb:	89 d0                	mov    %edx,%eax
  801afd:	8b 5d fc             	mov    0xfffffffc(%ebp),%ebx
  801b00:	c9                   	leave  
  801b01:	c3                   	ret    

00801b02 <fork>:

//
// User-level fork with copy-on-write.
// Set up our page fault handler appropriately.
// Create a child.
// Copy our address space and page fault handler setup to the child.
// Then mark the child as runnable and return.
//
// Returns: child's envid to the parent, 0 to the child, < 0 on error.
// It is also OK to panic on error.
//
// Hint:
//   Use vpd, vpt, and duppage.
//   Remember to fix "env" and the user exception stack in the child process.
//   Neither user exception stack should ever be marked copy-on-write,
//   so you must allocate a new page for the child's user exception stack.
//

envid_t
fork(void)
{
  801b02:	55                   	push   %ebp
  801b03:	89 e5                	mov    %esp,%ebp
  801b05:	57                   	push   %edi
  801b06:	56                   	push   %esi
  801b07:	53                   	push   %ebx
  801b08:	83 ec 18             	sub    $0x18,%esp
	// LAB 4: Your code here.
        // seanyliu
        int r;
        int pdidx = 0;
        int peidx = 0;
        envid_t childid;
        set_pgfault_handler(pgfault);
  801b0b:	68 ec 18 80 00       	push   $0x8018ec
  801b10:	e8 17 16 00 00       	call   80312c <set_pgfault_handler>
// This must be inlined.  Exercise for reader: why?
static __inline envid_t sys_exofork(void) __attribute__((always_inline));
static __inline envid_t
sys_exofork(void)
{
  801b15:	83 c4 10             	add    $0x10,%esp
	envid_t ret;
	__asm __volatile("int %2"
  801b18:	ba 07 00 00 00       	mov    $0x7,%edx
  801b1d:	89 d0                	mov    %edx,%eax
  801b1f:	cd 30                	int    $0x30
  801b21:	89 45 f0             	mov    %eax,0xfffffff0(%ebp)

        // create child environment
        childid = sys_exofork();
        if (childid < 0) {
  801b24:	85 c0                	test   %eax,%eax
  801b26:	79 15                	jns    801b3d <fork+0x3b>
          panic("fork: failed to create child %d", childid);
  801b28:	50                   	push   %eax
  801b29:	68 d0 20 81 00       	push   $0x8120d0
  801b2e:	68 85 00 00 00       	push   $0x85
  801b33:	68 f0 20 81 00       	push   $0x8120f0
  801b38:	e8 8f ef ff ff       	call   800acc <_panic>
        }
        if (childid == 0) {
          env = &envs[ENVX(sys_getenvid())];
          return 0;
        }

        // loop through pg dir, avoid user exception stack (which is immediately below UTOP
        for (pdidx = 0; pdidx < PDX(UTOP); pdidx++) {
  801b3d:	bf 00 00 00 00       	mov    $0x0,%edi
  801b42:	83 7d f0 00          	cmpl   $0x0,0xfffffff0(%ebp)
  801b46:	75 21                	jne    801b69 <fork+0x67>
  801b48:	e8 07 fa ff ff       	call   801554 <sys_getenvid>
  801b4d:	25 ff 03 00 00       	and    $0x3ff,%eax
  801b52:	c1 e0 07             	shl    $0x7,%eax
  801b55:	05 00 00 c0 ee       	add    $0xeec00000,%eax
  801b5a:	a3 54 e6 b3 00       	mov    %eax,0xb3e654
  801b5f:	ba 00 00 00 00       	mov    $0x0,%edx
  801b64:	e9 fd 00 00 00       	jmp    801c66 <fork+0x164>
          // check if the pg is present
          if (!(vpd[pdidx] & PTE_P)) continue;
  801b69:	8b 04 bd 00 d0 7b ef 	mov    0xef7bd000(,%edi,4),%eax
  801b70:	a8 01                	test   $0x1,%al
  801b72:	74 5f                	je     801bd3 <fork+0xd1>

          // loop through pg table entries
          for (peidx = 0; (peidx < NPTENTRIES) && (pdidx*NPDENTRIES+peidx < (UXSTACKTOP - PGSIZE)/PGSIZE); peidx++) {
  801b74:	bb 00 00 00 00       	mov    $0x0,%ebx
  801b79:	89 f8                	mov    %edi,%eax
  801b7b:	c1 e0 0a             	shl    $0xa,%eax
  801b7e:	89 c2                	mov    %eax,%edx
  801b80:	3d fe eb 0e 00       	cmp    $0xeebfe,%eax
  801b85:	77 4c                	ja     801bd3 <fork+0xd1>
  801b87:	89 c6                	mov    %eax,%esi
            if (vpt[pdidx * NPTENTRIES + peidx] & PTE_P) {
  801b89:	01 da                	add    %ebx,%edx
  801b8b:	8b 04 95 00 00 40 ef 	mov    0xef400000(,%edx,4),%eax
  801b92:	a8 01                	test   $0x1,%al
  801b94:	74 28                	je     801bbe <fork+0xbc>
              if ((r = duppage(childid, pdidx * NPTENTRIES + peidx)) < 0) {
  801b96:	83 ec 08             	sub    $0x8,%esp
  801b99:	52                   	push   %edx
  801b9a:	ff 75 f0             	pushl  0xfffffff0(%ebp)
  801b9d:	e8 45 fe ff ff       	call   8019e7 <duppage>
  801ba2:	83 c4 10             	add    $0x10,%esp
  801ba5:	85 c0                	test   %eax,%eax
  801ba7:	79 15                	jns    801bbe <fork+0xbc>
                panic("fork: duppage failed: %d", r);
  801ba9:	50                   	push   %eax
  801baa:	68 63 21 81 00       	push   $0x812163
  801baf:	68 95 00 00 00       	push   $0x95
  801bb4:	68 f0 20 81 00       	push   $0x8120f0
  801bb9:	e8 0e ef ff ff       	call   800acc <_panic>
  801bbe:	43                   	inc    %ebx
  801bbf:	81 fb ff 03 00 00    	cmp    $0x3ff,%ebx
  801bc5:	7f 0c                	jg     801bd3 <fork+0xd1>
  801bc7:	89 f2                	mov    %esi,%edx
  801bc9:	8d 04 1e             	lea    (%esi,%ebx,1),%eax
  801bcc:	3d fe eb 0e 00       	cmp    $0xeebfe,%eax
  801bd1:	76 b6                	jbe    801b89 <fork+0x87>
  801bd3:	47                   	inc    %edi
  801bd4:	81 ff ba 03 00 00    	cmp    $0x3ba,%edi
  801bda:	76 8d                	jbe    801b69 <fork+0x67>
              }
            }
          }
        }

        // allocate fresh page in the child for exception stack.
        if ((r = sys_page_alloc(childid, (void *)(UXSTACKTOP - PGSIZE), PTE_U | PTE_P | PTE_W)) < 0) {
  801bdc:	83 ec 04             	sub    $0x4,%esp
  801bdf:	6a 07                	push   $0x7
  801be1:	68 00 f0 bf ee       	push   $0xeebff000
  801be6:	ff 75 f0             	pushl  0xfffffff0(%ebp)
  801be9:	e8 a4 f9 ff ff       	call   801592 <sys_page_alloc>
  801bee:	83 c4 10             	add    $0x10,%esp
  801bf1:	85 c0                	test   %eax,%eax
  801bf3:	79 15                	jns    801c0a <fork+0x108>
          panic("fork: %d", r);
  801bf5:	50                   	push   %eax
  801bf6:	68 7c 21 81 00       	push   $0x81217c
  801bfb:	68 9d 00 00 00       	push   $0x9d
  801c00:	68 f0 20 81 00       	push   $0x8120f0
  801c05:	e8 c2 ee ff ff       	call   800acc <_panic>
        }

        // parent sets the user page fault entrypoint for the child to look like its own.
        if ((r = sys_env_set_pgfault_upcall(childid, env->env_pgfault_upcall)) < 0) {
  801c0a:	83 ec 08             	sub    $0x8,%esp
  801c0d:	a1 54 e6 b3 00       	mov    0xb3e654,%eax
  801c12:	8b 40 64             	mov    0x64(%eax),%eax
  801c15:	50                   	push   %eax
  801c16:	ff 75 f0             	pushl  0xfffffff0(%ebp)
  801c19:	e8 bf fa ff ff       	call   8016dd <sys_env_set_pgfault_upcall>
  801c1e:	83 c4 10             	add    $0x10,%esp
  801c21:	85 c0                	test   %eax,%eax
  801c23:	79 15                	jns    801c3a <fork+0x138>
          panic("fork: %d", r);
  801c25:	50                   	push   %eax
  801c26:	68 7c 21 81 00       	push   $0x81217c
  801c2b:	68 a2 00 00 00       	push   $0xa2
  801c30:	68 f0 20 81 00       	push   $0x8120f0
  801c35:	e8 92 ee ff ff       	call   800acc <_panic>
        }

        // parent marks child runnable
        if ((r = sys_env_set_status(childid, ENV_RUNNABLE)) < 0) {
  801c3a:	83 ec 08             	sub    $0x8,%esp
  801c3d:	6a 01                	push   $0x1
  801c3f:	ff 75 f0             	pushl  0xfffffff0(%ebp)
  801c42:	e8 12 fa ff ff       	call   801659 <sys_env_set_status>
  801c47:	83 c4 10             	add    $0x10,%esp
          panic("fork: %d", r);
        }

        return childid;       
  801c4a:	8b 55 f0             	mov    0xfffffff0(%ebp),%edx
  801c4d:	85 c0                	test   %eax,%eax
  801c4f:	79 15                	jns    801c66 <fork+0x164>
  801c51:	50                   	push   %eax
  801c52:	68 7c 21 81 00       	push   $0x81217c
  801c57:	68 a7 00 00 00       	push   $0xa7
  801c5c:	68 f0 20 81 00       	push   $0x8120f0
  801c61:	e8 66 ee ff ff       	call   800acc <_panic>
 
	//panic("fork not implemented");
}
  801c66:	89 d0                	mov    %edx,%eax
  801c68:	8d 65 f4             	lea    0xfffffff4(%ebp),%esp
  801c6b:	5b                   	pop    %ebx
  801c6c:	5e                   	pop    %esi
  801c6d:	5f                   	pop    %edi
  801c6e:	c9                   	leave  
  801c6f:	c3                   	ret    

00801c70 <sfork>:



// Challenge!
int
sfork(void)
{
  801c70:	55                   	push   %ebp
  801c71:	89 e5                	mov    %esp,%ebp
  801c73:	83 ec 0c             	sub    $0xc,%esp
	panic("sfork not implemented");
  801c76:	68 85 21 81 00       	push   $0x812185
  801c7b:	68 b5 00 00 00       	push   $0xb5
  801c80:	68 f0 20 81 00       	push   $0x8120f0
  801c85:	e8 42 ee ff ff       	call   800acc <_panic>
	...

00801c8c <ipc_recv>:
//   If 'pg' is null, pass sys_ipc_recv a value that it will understand
//   as meaning "no page".  (Zero is not the right value.)
int32_t
ipc_recv(envid_t *from_env_store, void *pg, int *perm_store)
{
  801c8c:	55                   	push   %ebp
  801c8d:	89 e5                	mov    %esp,%ebp
  801c8f:	56                   	push   %esi
  801c90:	53                   	push   %ebx
  801c91:	8b 5d 08             	mov    0x8(%ebp),%ebx
  801c94:	8b 45 0c             	mov    0xc(%ebp),%eax
  801c97:	8b 75 10             	mov    0x10(%ebp),%esi
  // LAB 4: Your code here.
  //panic("ipc_recv not implemented");
  int r;
  if (pg == NULL) {
  801c9a:	85 c0                	test   %eax,%eax
  801c9c:	75 12                	jne    801cb0 <ipc_recv+0x24>
    r = sys_ipc_recv((void *)UTOP);
  801c9e:	83 ec 0c             	sub    $0xc,%esp
  801ca1:	68 00 00 c0 ee       	push   $0xeec00000
  801ca6:	e8 97 fa ff ff       	call   801742 <sys_ipc_recv>
  801cab:	83 c4 10             	add    $0x10,%esp
  801cae:	eb 0c                	jmp    801cbc <ipc_recv+0x30>
  } else {
    r = sys_ipc_recv(pg);
  801cb0:	83 ec 0c             	sub    $0xc,%esp
  801cb3:	50                   	push   %eax
  801cb4:	e8 89 fa ff ff       	call   801742 <sys_ipc_recv>
  801cb9:	83 c4 10             	add    $0x10,%esp
  }

  if (r < 0) {
    from_env_store = 0;
    perm_store = 0;
    return r;
  801cbc:	89 c2                	mov    %eax,%edx
  801cbe:	85 c0                	test   %eax,%eax
  801cc0:	78 24                	js     801ce6 <ipc_recv+0x5a>
  }

  if (from_env_store != NULL) {
  801cc2:	85 db                	test   %ebx,%ebx
  801cc4:	74 0a                	je     801cd0 <ipc_recv+0x44>
    *from_env_store = env->env_ipc_from;
  801cc6:	a1 54 e6 b3 00       	mov    0xb3e654,%eax
  801ccb:	8b 40 74             	mov    0x74(%eax),%eax
  801cce:	89 03                	mov    %eax,(%ebx)
  }
  if (perm_store != NULL) {
  801cd0:	85 f6                	test   %esi,%esi
  801cd2:	74 0a                	je     801cde <ipc_recv+0x52>
    *perm_store = env->env_ipc_perm;
  801cd4:	a1 54 e6 b3 00       	mov    0xb3e654,%eax
  801cd9:	8b 40 78             	mov    0x78(%eax),%eax
  801cdc:	89 06                	mov    %eax,(%esi)
  }

  return env->env_ipc_value;
  801cde:	a1 54 e6 b3 00       	mov    0xb3e654,%eax
  801ce3:	8b 50 70             	mov    0x70(%eax),%edx

}
  801ce6:	89 d0                	mov    %edx,%eax
  801ce8:	8d 65 f8             	lea    0xfffffff8(%ebp),%esp
  801ceb:	5b                   	pop    %ebx
  801cec:	5e                   	pop    %esi
  801ced:	c9                   	leave  
  801cee:	c3                   	ret    

00801cef <ipc_send>:

// Send 'val' (and 'pg' with 'perm', if 'pg' is nonnull) to 'toenv'.
// This function keeps trying until it succeeds.
// It should panic() on any error other than -E_IPC_NOT_RECV.
//
// Hint:
//   Use sys_yield() to be CPU-friendly.
//   If 'pg' is null, pass sys_ipc_recv a value that it will understand
//   as meaning "no page".  (Zero is not the right value.)
void
ipc_send(envid_t to_env, uint32_t val, void *pg, int perm)
{
  801cef:	55                   	push   %ebp
  801cf0:	89 e5                	mov    %esp,%ebp
  801cf2:	57                   	push   %edi
  801cf3:	56                   	push   %esi
  801cf4:	53                   	push   %ebx
  801cf5:	83 ec 0c             	sub    $0xc,%esp
  801cf8:	8b 7d 0c             	mov    0xc(%ebp),%edi
  801cfb:	8b 5d 10             	mov    0x10(%ebp),%ebx
  801cfe:	8b 75 14             	mov    0x14(%ebp),%esi
  // LAB 4: Your code here.
  // seanyliu
  //panic("ipc_send not implemented");
  int r;
  if (pg == NULL) {
  801d01:	85 db                	test   %ebx,%ebx
  801d03:	75 0a                	jne    801d0f <ipc_send+0x20>
    pg = (void *) UTOP;
  801d05:	bb 00 00 c0 ee       	mov    $0xeec00000,%ebx
    perm = 0;
  801d0a:	be 00 00 00 00       	mov    $0x0,%esi
  }
  while (1) {
    r = sys_ipc_try_send(to_env, val, pg, perm);
  801d0f:	56                   	push   %esi
  801d10:	53                   	push   %ebx
  801d11:	57                   	push   %edi
  801d12:	ff 75 08             	pushl  0x8(%ebp)
  801d15:	e8 05 fa ff ff       	call   80171f <sys_ipc_try_send>
    if (r == -E_IPC_NOT_RECV) {
  801d1a:	83 c4 10             	add    $0x10,%esp
  801d1d:	83 f8 f9             	cmp    $0xfffffff9,%eax
  801d20:	75 07                	jne    801d29 <ipc_send+0x3a>
      sys_yield();
  801d22:	e8 4c f8 ff ff       	call   801573 <sys_yield>
  801d27:	eb e6                	jmp    801d0f <ipc_send+0x20>
    }
    else if (r < 0) panic ("ipc_send: failed to send: %d", r);
  801d29:	85 c0                	test   %eax,%eax
  801d2b:	79 12                	jns    801d3f <ipc_send+0x50>
  801d2d:	50                   	push   %eax
  801d2e:	68 9b 21 81 00       	push   $0x81219b
  801d33:	6a 49                	push   $0x49
  801d35:	68 b8 21 81 00       	push   $0x8121b8
  801d3a:	e8 8d ed ff ff       	call   800acc <_panic>
    else break;
  }
}
  801d3f:	8d 65 f4             	lea    0xfffffff4(%ebp),%esp
  801d42:	5b                   	pop    %ebx
  801d43:	5e                   	pop    %esi
  801d44:	5f                   	pop    %edi
  801d45:	c9                   	leave  
  801d46:	c3                   	ret    
	...

00801d48 <fd2data>:
 ********************************/

char*
fd2data(struct Fd *fd)
{
  801d48:	55                   	push   %ebp
  801d49:	89 e5                	mov    %esp,%ebp
  801d4b:	83 ec 14             	sub    $0x14,%esp
	return INDEX2DATA(fd2num(fd));
  801d4e:	ff 75 08             	pushl  0x8(%ebp)
  801d51:	e8 0a 00 00 00       	call   801d60 <fd2num>
  801d56:	c1 e0 16             	shl    $0x16,%eax
  801d59:	2d 00 00 00 30       	sub    $0x30000000,%eax
}
  801d5e:	c9                   	leave  
  801d5f:	c3                   	ret    

00801d60 <fd2num>:

int
fd2num(struct Fd *fd)
{
  801d60:	55                   	push   %ebp
  801d61:	89 e5                	mov    %esp,%ebp
	return ((uintptr_t) fd - FDTABLE) / PGSIZE;
  801d63:	8b 45 08             	mov    0x8(%ebp),%eax
  801d66:	05 00 00 40 30       	add    $0x30400000,%eax
  801d6b:	c1 e8 0c             	shr    $0xc,%eax
}
  801d6e:	c9                   	leave  
  801d6f:	c3                   	ret    

00801d70 <fd_alloc>:

// Finds the smallest i from 0 to MAXFD-1 that doesn't have
// its fd page mapped.
// Sets *fd_store to the corresponding fd page virtual address.
//
// fd_alloc does NOT actually allocate an fd page.
// It is up to the caller to allocate the page somehow.
// This means that if someone calls fd_alloc twice in a row
// without allocating the first page we return, we'll return the same
// page the second time.
//
// Hint: Use INDEX2FD.
//
// Returns 0 on success, < 0 on error.  Errors are:
//	-E_MAX_FD: no more file descriptors
// On error, *fd_store is set to 0.
int
fd_alloc(struct Fd **fd_store)
{
  801d70:	55                   	push   %ebp
  801d71:	89 e5                	mov    %esp,%ebp
  801d73:	57                   	push   %edi
  801d74:	56                   	push   %esi
  801d75:	53                   	push   %ebx
  801d76:	8b 7d 08             	mov    0x8(%ebp),%edi
	int i;
	struct Fd *fd;

	for (i = 0; i < MAXFD; i++) {
  801d79:	b9 00 00 00 00       	mov    $0x0,%ecx
  801d7e:	be 00 d0 7b ef       	mov    $0xef7bd000,%esi
  801d83:	bb 00 00 40 ef       	mov    $0xef400000,%ebx
		fd = INDEX2FD(i);
  801d88:	89 c8                	mov    %ecx,%eax
  801d8a:	c1 e0 0c             	shl    $0xc,%eax
  801d8d:	8d 90 00 00 c0 cf    	lea    0xcfc00000(%eax),%edx
		if ((vpd[PDX(fd)] & PTE_P) == 0 || (vpt[VPN(fd)] & PTE_P) == 0) {
  801d93:	89 d0                	mov    %edx,%eax
  801d95:	c1 e8 16             	shr    $0x16,%eax
  801d98:	8b 04 86             	mov    (%esi,%eax,4),%eax
  801d9b:	a8 01                	test   $0x1,%al
  801d9d:	74 0c                	je     801dab <fd_alloc+0x3b>
  801d9f:	89 d0                	mov    %edx,%eax
  801da1:	c1 e8 0c             	shr    $0xc,%eax
  801da4:	8b 04 83             	mov    (%ebx,%eax,4),%eax
  801da7:	a8 01                	test   $0x1,%al
  801da9:	75 09                	jne    801db4 <fd_alloc+0x44>
			*fd_store = fd;
  801dab:	89 17                	mov    %edx,(%edi)
			return 0;
  801dad:	b8 00 00 00 00       	mov    $0x0,%eax
  801db2:	eb 11                	jmp    801dc5 <fd_alloc+0x55>
  801db4:	41                   	inc    %ecx
  801db5:	83 f9 1f             	cmp    $0x1f,%ecx
  801db8:	7e ce                	jle    801d88 <fd_alloc+0x18>
		}
	}
	*fd_store = 0;
  801dba:	c7 07 00 00 00 00    	movl   $0x0,(%edi)
	return -E_MAX_OPEN;
  801dc0:	b8 f6 ff ff ff       	mov    $0xfffffff6,%eax
}
  801dc5:	5b                   	pop    %ebx
  801dc6:	5e                   	pop    %esi
  801dc7:	5f                   	pop    %edi
  801dc8:	c9                   	leave  
  801dc9:	c3                   	ret    

00801dca <fd_lookup>:

// Check that fdnum is in range and mapped.
// If it is, set *fd_store to the fd page virtual address.
//
// Returns 0 on success (the page is in range and mapped), < 0 on error.
// Errors are:
//	-E_INVAL: fdnum was either not in range or not mapped.
int
fd_lookup(int fdnum, struct Fd **fd_store)
{
  801dca:	55                   	push   %ebp
  801dcb:	89 e5                	mov    %esp,%ebp
  801dcd:	8b 45 08             	mov    0x8(%ebp),%eax
	struct Fd *fd;

	if (fdnum < 0 || fdnum >= MAXFD) {
		if (debug)
			cprintf("[%08x] bad fd %d\n", env->env_id, fd);
		return -E_INVAL;
  801dd0:	ba fd ff ff ff       	mov    $0xfffffffd,%edx
  801dd5:	83 f8 1f             	cmp    $0x1f,%eax
  801dd8:	77 3a                	ja     801e14 <fd_lookup+0x4a>
	}
	fd = INDEX2FD(fdnum);
  801dda:	c1 e0 0c             	shl    $0xc,%eax
  801ddd:	8d 90 00 00 c0 cf    	lea    0xcfc00000(%eax),%edx
	if (!(vpd[PDX(fd)] & PTE_P) || !(vpt[VPN(fd)] & PTE_P)) {
  801de3:	89 d0                	mov    %edx,%eax
  801de5:	c1 e8 16             	shr    $0x16,%eax
  801de8:	8b 04 85 00 d0 7b ef 	mov    0xef7bd000(,%eax,4),%eax
  801def:	a8 01                	test   $0x1,%al
  801df1:	74 10                	je     801e03 <fd_lookup+0x39>
  801df3:	89 d0                	mov    %edx,%eax
  801df5:	c1 e8 0c             	shr    $0xc,%eax
  801df8:	8b 04 85 00 00 40 ef 	mov    0xef400000(,%eax,4),%eax
  801dff:	a8 01                	test   $0x1,%al
  801e01:	75 07                	jne    801e0a <fd_lookup+0x40>
		if (debug)
			cprintf("[%08x] closed fd %d\n", env->env_id, fd);
		return -E_INVAL;
  801e03:	ba fd ff ff ff       	mov    $0xfffffffd,%edx
  801e08:	eb 0a                	jmp    801e14 <fd_lookup+0x4a>
	}
	*fd_store = fd;
  801e0a:	8b 45 0c             	mov    0xc(%ebp),%eax
  801e0d:	89 10                	mov    %edx,(%eax)
	return 0;
  801e0f:	ba 00 00 00 00       	mov    $0x0,%edx
}
  801e14:	89 d0                	mov    %edx,%eax
  801e16:	c9                   	leave  
  801e17:	c3                   	ret    

00801e18 <fd_close>:

// Frees file descriptor 'fd' by closing the corresponding file
// and unmapping the file descriptor page.
// If 'must_exist' is 0, then fd can be a closed or nonexistent file
// descriptor; the function will return 0 and have no other effect.
// If 'must_exist' is 1, then fd_close returns -E_INVAL when passed a
// closed or nonexistent file descriptor.
// Returns 0 on success, < 0 on error.
int
fd_close(struct Fd *fd, bool must_exist)
{
  801e18:	55                   	push   %ebp
  801e19:	89 e5                	mov    %esp,%ebp
  801e1b:	56                   	push   %esi
  801e1c:	53                   	push   %ebx
  801e1d:	83 ec 10             	sub    $0x10,%esp
  801e20:	8b 75 08             	mov    0x8(%ebp),%esi
	struct Fd *fd2;
	struct Dev *dev;
	int r;
	if ((r = fd_lookup(fd2num(fd), &fd2)) < 0
  801e23:	8d 45 f4             	lea    0xfffffff4(%ebp),%eax
  801e26:	50                   	push   %eax
  801e27:	56                   	push   %esi
  801e28:	e8 33 ff ff ff       	call   801d60 <fd2num>
  801e2d:	89 04 24             	mov    %eax,(%esp)
  801e30:	e8 95 ff ff ff       	call   801dca <fd_lookup>
  801e35:	89 c3                	mov    %eax,%ebx
  801e37:	83 c4 08             	add    $0x8,%esp
  801e3a:	85 c0                	test   %eax,%eax
  801e3c:	78 05                	js     801e43 <fd_close+0x2b>
  801e3e:	3b 75 f4             	cmp    0xfffffff4(%ebp),%esi
  801e41:	74 0f                	je     801e52 <fd_close+0x3a>
	    || fd != fd2)
		return (must_exist ? r : 0);
  801e43:	89 d8                	mov    %ebx,%eax
  801e45:	83 7d 0c 00          	cmpl   $0x0,0xc(%ebp)
  801e49:	75 3a                	jne    801e85 <fd_close+0x6d>
  801e4b:	b8 00 00 00 00       	mov    $0x0,%eax
  801e50:	eb 33                	jmp    801e85 <fd_close+0x6d>
	if ((r = dev_lookup(fd->fd_dev_id, &dev)) >= 0)
  801e52:	83 ec 08             	sub    $0x8,%esp
  801e55:	8d 45 f0             	lea    0xfffffff0(%ebp),%eax
  801e58:	50                   	push   %eax
  801e59:	ff 36                	pushl  (%esi)
  801e5b:	e8 2c 00 00 00       	call   801e8c <dev_lookup>
  801e60:	89 c3                	mov    %eax,%ebx
  801e62:	83 c4 10             	add    $0x10,%esp
  801e65:	85 c0                	test   %eax,%eax
  801e67:	78 0f                	js     801e78 <fd_close+0x60>
		r = (*dev->dev_close)(fd);
  801e69:	83 ec 0c             	sub    $0xc,%esp
  801e6c:	56                   	push   %esi
  801e6d:	8b 45 f0             	mov    0xfffffff0(%ebp),%eax
  801e70:	ff 50 10             	call   *0x10(%eax)
  801e73:	89 c3                	mov    %eax,%ebx
  801e75:	83 c4 10             	add    $0x10,%esp
	// Make sure fd is unmapped.  Might be a no-op if
	// (*dev->dev_close)(fd) already unmapped it.
	(void) sys_page_unmap(0, fd);
  801e78:	83 ec 08             	sub    $0x8,%esp
  801e7b:	56                   	push   %esi
  801e7c:	6a 00                	push   $0x0
  801e7e:	e8 94 f7 ff ff       	call   801617 <sys_page_unmap>
	return r;
  801e83:	89 d8                	mov    %ebx,%eax
}
  801e85:	8d 65 f8             	lea    0xfffffff8(%ebp),%esp
  801e88:	5b                   	pop    %ebx
  801e89:	5e                   	pop    %esi
  801e8a:	c9                   	leave  
  801e8b:	c3                   	ret    

00801e8c <dev_lookup>:


/******************
 * FILE FUNCTIONS *
 *                *
 ******************/

static struct Dev *devtab[] =
{
	&devfile,
	&devpipe,
	&devcons,
	0
};

int
dev_lookup(int dev_id, struct Dev **dev)
{
  801e8c:	55                   	push   %ebp
  801e8d:	89 e5                	mov    %esp,%ebp
  801e8f:	56                   	push   %esi
  801e90:	53                   	push   %ebx
  801e91:	8b 5d 08             	mov    0x8(%ebp),%ebx
  801e94:	8b 75 0c             	mov    0xc(%ebp),%esi
	int i;
	for (i = 0; devtab[i]; i++)
  801e97:	ba 00 00 00 00       	mov    $0x0,%edx
  801e9c:	83 3d 04 80 81 00 00 	cmpl   $0x0,0x818004
  801ea3:	74 1c                	je     801ec1 <dev_lookup+0x35>
  801ea5:	b9 04 80 81 00       	mov    $0x818004,%ecx
		if (devtab[i]->dev_id == dev_id) {
  801eaa:	8b 04 91             	mov    (%ecx,%edx,4),%eax
  801ead:	39 18                	cmp    %ebx,(%eax)
  801eaf:	75 09                	jne    801eba <dev_lookup+0x2e>
			*dev = devtab[i];
  801eb1:	89 06                	mov    %eax,(%esi)
			return 0;
  801eb3:	b8 00 00 00 00       	mov    $0x0,%eax
  801eb8:	eb 29                	jmp    801ee3 <dev_lookup+0x57>
  801eba:	42                   	inc    %edx
  801ebb:	83 3c 91 00          	cmpl   $0x0,(%ecx,%edx,4)
  801ebf:	75 e9                	jne    801eaa <dev_lookup+0x1e>
		}
	cprintf("[%08x] unknown device type %d\n", env->env_id, dev_id);
  801ec1:	83 ec 04             	sub    $0x4,%esp
  801ec4:	53                   	push   %ebx
  801ec5:	a1 54 e6 b3 00       	mov    0xb3e654,%eax
  801eca:	8b 40 4c             	mov    0x4c(%eax),%eax
  801ecd:	50                   	push   %eax
  801ece:	68 c4 21 81 00       	push   $0x8121c4
  801ed3:	e8 e4 ec ff ff       	call   800bbc <cprintf>
	*dev = 0;
  801ed8:	c7 06 00 00 00 00    	movl   $0x0,(%esi)
	return -E_INVAL;
  801ede:	b8 fd ff ff ff       	mov    $0xfffffffd,%eax
}
  801ee3:	8d 65 f8             	lea    0xfffffff8(%ebp),%esp
  801ee6:	5b                   	pop    %ebx
  801ee7:	5e                   	pop    %esi
  801ee8:	c9                   	leave  
  801ee9:	c3                   	ret    

00801eea <close>:

int
close(int fdnum)
{
  801eea:	55                   	push   %ebp
  801eeb:	89 e5                	mov    %esp,%ebp
  801eed:	83 ec 08             	sub    $0x8,%esp
	struct Fd *fd;
	int r;

	if ((r = fd_lookup(fdnum, &fd)) < 0)
  801ef0:	8d 45 fc             	lea    0xfffffffc(%ebp),%eax
  801ef3:	50                   	push   %eax
  801ef4:	ff 75 08             	pushl  0x8(%ebp)
  801ef7:	e8 ce fe ff ff       	call   801dca <fd_lookup>
  801efc:	83 c4 08             	add    $0x8,%esp
		return r;
  801eff:	89 c2                	mov    %eax,%edx
  801f01:	85 c0                	test   %eax,%eax
  801f03:	78 0f                	js     801f14 <close+0x2a>
	else
		return fd_close(fd, 1);
  801f05:	83 ec 08             	sub    $0x8,%esp
  801f08:	6a 01                	push   $0x1
  801f0a:	ff 75 fc             	pushl  0xfffffffc(%ebp)
  801f0d:	e8 06 ff ff ff       	call   801e18 <fd_close>
  801f12:	89 c2                	mov    %eax,%edx
}
  801f14:	89 d0                	mov    %edx,%eax
  801f16:	c9                   	leave  
  801f17:	c3                   	ret    

00801f18 <close_all>:

void
close_all(void)
{
  801f18:	55                   	push   %ebp
  801f19:	89 e5                	mov    %esp,%ebp
  801f1b:	53                   	push   %ebx
  801f1c:	83 ec 04             	sub    $0x4,%esp
	int i;
	for (i = 0; i < MAXFD; i++)
  801f1f:	bb 00 00 00 00       	mov    $0x0,%ebx
		close(i);
  801f24:	83 ec 0c             	sub    $0xc,%esp
  801f27:	53                   	push   %ebx
  801f28:	e8 bd ff ff ff       	call   801eea <close>
  801f2d:	83 c4 10             	add    $0x10,%esp
  801f30:	43                   	inc    %ebx
  801f31:	83 fb 1f             	cmp    $0x1f,%ebx
  801f34:	7e ee                	jle    801f24 <close_all+0xc>
}
  801f36:	8b 5d fc             	mov    0xfffffffc(%ebp),%ebx
  801f39:	c9                   	leave  
  801f3a:	c3                   	ret    

00801f3b <dup>:

// Make file descriptor 'newfdnum' a duplicate of file descriptor 'oldfdnum'.
// For instance, writing onto either file descriptor will affect the
// file and the file offset of the other.
// Closes any previously open file descriptor at 'newfdnum'.
// This is implemented using virtual memory tricks (of course!).
int
dup(int oldfdnum, int newfdnum)
{
  801f3b:	55                   	push   %ebp
  801f3c:	89 e5                	mov    %esp,%ebp
  801f3e:	57                   	push   %edi
  801f3f:	56                   	push   %esi
  801f40:	53                   	push   %ebx
  801f41:	83 ec 0c             	sub    $0xc,%esp
	int i, r;
	char *ova, *nva;
	pte_t pte;
	struct Fd *oldfd, *newfd;

	if ((r = fd_lookup(oldfdnum, &oldfd)) < 0)
  801f44:	8d 45 f0             	lea    0xfffffff0(%ebp),%eax
  801f47:	50                   	push   %eax
  801f48:	ff 75 08             	pushl  0x8(%ebp)
  801f4b:	e8 7a fe ff ff       	call   801dca <fd_lookup>
  801f50:	89 c6                	mov    %eax,%esi
  801f52:	83 c4 08             	add    $0x8,%esp
  801f55:	85 f6                	test   %esi,%esi
  801f57:	0f 88 f8 00 00 00    	js     802055 <dup+0x11a>
		return r;
	close(newfdnum);
  801f5d:	83 ec 0c             	sub    $0xc,%esp
  801f60:	ff 75 0c             	pushl  0xc(%ebp)
  801f63:	e8 82 ff ff ff       	call   801eea <close>

	newfd = INDEX2FD(newfdnum);
  801f68:	8b 45 0c             	mov    0xc(%ebp),%eax
  801f6b:	c1 e0 0c             	shl    $0xc,%eax
  801f6e:	2d 00 00 40 30       	sub    $0x30400000,%eax
  801f73:	89 45 e8             	mov    %eax,0xffffffe8(%ebp)
	ova = fd2data(oldfd);
  801f76:	83 c4 04             	add    $0x4,%esp
  801f79:	ff 75 f0             	pushl  0xfffffff0(%ebp)
  801f7c:	e8 c7 fd ff ff       	call   801d48 <fd2data>
  801f81:	89 c7                	mov    %eax,%edi
	nva = fd2data(newfd);
  801f83:	83 c4 04             	add    $0x4,%esp
  801f86:	ff 75 e8             	pushl  0xffffffe8(%ebp)
  801f89:	e8 ba fd ff ff       	call   801d48 <fd2data>
  801f8e:	89 45 ec             	mov    %eax,0xffffffec(%ebp)

	if (vpd[PDX(ova)]) {
  801f91:	89 f8                	mov    %edi,%eax
  801f93:	c1 e8 16             	shr    $0x16,%eax
  801f96:	83 c4 10             	add    $0x10,%esp
  801f99:	8b 04 85 00 d0 7b ef 	mov    0xef7bd000(,%eax,4),%eax
  801fa0:	85 c0                	test   %eax,%eax
  801fa2:	74 48                	je     801fec <dup+0xb1>
		for (i = 0; i < PTSIZE; i += PGSIZE) {
  801fa4:	bb 00 00 00 00       	mov    $0x0,%ebx
			pte = vpt[VPN(ova + i)];
  801fa9:	8d 14 1f             	lea    (%edi,%ebx,1),%edx
  801fac:	89 d0                	mov    %edx,%eax
  801fae:	c1 e8 0c             	shr    $0xc,%eax
  801fb1:	8b 04 85 00 00 40 ef 	mov    0xef400000(,%eax,4),%eax
			if (pte&PTE_P) {
  801fb8:	a8 01                	test   $0x1,%al
  801fba:	74 22                	je     801fde <dup+0xa3>
				// should be no error here -- pd is already allocated
				if ((r = sys_page_map(0, ova + i, 0, nva + i, pte & PTE_USER)) < 0)
  801fbc:	83 ec 0c             	sub    $0xc,%esp
  801fbf:	25 07 0e 00 00       	and    $0xe07,%eax
  801fc4:	50                   	push   %eax
  801fc5:	8b 45 ec             	mov    0xffffffec(%ebp),%eax
  801fc8:	01 d8                	add    %ebx,%eax
  801fca:	50                   	push   %eax
  801fcb:	6a 00                	push   $0x0
  801fcd:	52                   	push   %edx
  801fce:	6a 00                	push   $0x0
  801fd0:	e8 00 f6 ff ff       	call   8015d5 <sys_page_map>
  801fd5:	89 c6                	mov    %eax,%esi
  801fd7:	83 c4 20             	add    $0x20,%esp
  801fda:	85 c0                	test   %eax,%eax
  801fdc:	78 3f                	js     80201d <dup+0xe2>
  801fde:	81 c3 00 10 00 00    	add    $0x1000,%ebx
  801fe4:	81 fb ff ff 3f 00    	cmp    $0x3fffff,%ebx
  801fea:	7e bd                	jle    801fa9 <dup+0x6e>
					goto err;
			}
		}
	}
	if ((r = sys_page_map(0, oldfd, 0, newfd, vpt[VPN(oldfd)] & PTE_USER)) < 0)
  801fec:	83 ec 0c             	sub    $0xc,%esp
  801fef:	8b 55 f0             	mov    0xfffffff0(%ebp),%edx
  801ff2:	89 d0                	mov    %edx,%eax
  801ff4:	c1 e8 0c             	shr    $0xc,%eax
  801ff7:	8b 04 85 00 00 40 ef 	mov    0xef400000(,%eax,4),%eax
  801ffe:	25 07 0e 00 00       	and    $0xe07,%eax
  802003:	50                   	push   %eax
  802004:	ff 75 e8             	pushl  0xffffffe8(%ebp)
  802007:	6a 00                	push   $0x0
  802009:	52                   	push   %edx
  80200a:	6a 00                	push   $0x0
  80200c:	e8 c4 f5 ff ff       	call   8015d5 <sys_page_map>
  802011:	89 c6                	mov    %eax,%esi
  802013:	83 c4 20             	add    $0x20,%esp
		goto err;

	return newfdnum;
  802016:	8b 45 0c             	mov    0xc(%ebp),%eax
  802019:	85 f6                	test   %esi,%esi
  80201b:	79 38                	jns    802055 <dup+0x11a>

err:
	sys_page_unmap(0, newfd);
  80201d:	83 ec 08             	sub    $0x8,%esp
  802020:	ff 75 e8             	pushl  0xffffffe8(%ebp)
  802023:	6a 00                	push   $0x0
  802025:	e8 ed f5 ff ff       	call   801617 <sys_page_unmap>
	for (i = 0; i < PTSIZE; i += PGSIZE)
  80202a:	bb 00 00 00 00       	mov    $0x0,%ebx
  80202f:	83 c4 10             	add    $0x10,%esp
		sys_page_unmap(0, nva + i);
  802032:	83 ec 08             	sub    $0x8,%esp
  802035:	8b 45 ec             	mov    0xffffffec(%ebp),%eax
  802038:	01 d8                	add    %ebx,%eax
  80203a:	50                   	push   %eax
  80203b:	6a 00                	push   $0x0
  80203d:	e8 d5 f5 ff ff       	call   801617 <sys_page_unmap>
  802042:	83 c4 10             	add    $0x10,%esp
  802045:	81 c3 00 10 00 00    	add    $0x1000,%ebx
  80204b:	81 fb ff ff 3f 00    	cmp    $0x3fffff,%ebx
  802051:	7e df                	jle    802032 <dup+0xf7>
	return r;
  802053:	89 f0                	mov    %esi,%eax
}
  802055:	8d 65 f4             	lea    0xfffffff4(%ebp),%esp
  802058:	5b                   	pop    %ebx
  802059:	5e                   	pop    %esi
  80205a:	5f                   	pop    %edi
  80205b:	c9                   	leave  
  80205c:	c3                   	ret    

0080205d <read>:

ssize_t
read(int fdnum, void *buf, size_t n)
{
  80205d:	55                   	push   %ebp
  80205e:	89 e5                	mov    %esp,%ebp
  802060:	53                   	push   %ebx
  802061:	83 ec 14             	sub    $0x14,%esp
  802064:	8b 5d 08             	mov    0x8(%ebp),%ebx
	int r;
	struct Dev *dev;
	struct Fd *fd;

	if ((r = fd_lookup(fdnum, &fd)) < 0
  802067:	8d 45 f8             	lea    0xfffffff8(%ebp),%eax
  80206a:	50                   	push   %eax
  80206b:	53                   	push   %ebx
  80206c:	e8 59 fd ff ff       	call   801dca <fd_lookup>
  802071:	89 c2                	mov    %eax,%edx
  802073:	83 c4 08             	add    $0x8,%esp
  802076:	85 c0                	test   %eax,%eax
  802078:	78 1a                	js     802094 <read+0x37>
  80207a:	83 ec 08             	sub    $0x8,%esp
  80207d:	8d 45 f4             	lea    0xfffffff4(%ebp),%eax
  802080:	50                   	push   %eax
  802081:	8b 45 f8             	mov    0xfffffff8(%ebp),%eax
  802084:	ff 30                	pushl  (%eax)
  802086:	e8 01 fe ff ff       	call   801e8c <dev_lookup>
  80208b:	89 c2                	mov    %eax,%edx
  80208d:	83 c4 10             	add    $0x10,%esp
  802090:	85 c0                	test   %eax,%eax
  802092:	79 04                	jns    802098 <read+0x3b>
	    || (r = dev_lookup(fd->fd_dev_id, &dev)) < 0)
		return r;
  802094:	89 d0                	mov    %edx,%eax
  802096:	eb 50                	jmp    8020e8 <read+0x8b>
	if ((fd->fd_omode & O_ACCMODE) == O_WRONLY) {
  802098:	8b 45 f8             	mov    0xfffffff8(%ebp),%eax
  80209b:	8b 40 08             	mov    0x8(%eax),%eax
  80209e:	83 e0 03             	and    $0x3,%eax
  8020a1:	83 f8 01             	cmp    $0x1,%eax
  8020a4:	75 1e                	jne    8020c4 <read+0x67>
		cprintf("[%08x] read %d -- bad mode\n", env->env_id, fdnum); 
  8020a6:	83 ec 04             	sub    $0x4,%esp
  8020a9:	53                   	push   %ebx
  8020aa:	a1 54 e6 b3 00       	mov    0xb3e654,%eax
  8020af:	8b 40 4c             	mov    0x4c(%eax),%eax
  8020b2:	50                   	push   %eax
  8020b3:	68 05 22 81 00       	push   $0x812205
  8020b8:	e8 ff ea ff ff       	call   800bbc <cprintf>
		return -E_INVAL;
  8020bd:	b8 fd ff ff ff       	mov    $0xfffffffd,%eax
  8020c2:	eb 24                	jmp    8020e8 <read+0x8b>
	}
	r = (*dev->dev_read)(fd, buf, n, fd->fd_offset);
  8020c4:	8b 45 f8             	mov    0xfffffff8(%ebp),%eax
  8020c7:	ff 70 04             	pushl  0x4(%eax)
  8020ca:	ff 75 10             	pushl  0x10(%ebp)
  8020cd:	ff 75 0c             	pushl  0xc(%ebp)
  8020d0:	50                   	push   %eax
  8020d1:	8b 45 f4             	mov    0xfffffff4(%ebp),%eax
  8020d4:	ff 50 08             	call   *0x8(%eax)
  8020d7:	89 c2                	mov    %eax,%edx
	if (r >= 0)
  8020d9:	83 c4 10             	add    $0x10,%esp
  8020dc:	85 c0                	test   %eax,%eax
  8020de:	78 06                	js     8020e6 <read+0x89>
		fd->fd_offset += r;
  8020e0:	8b 45 f8             	mov    0xfffffff8(%ebp),%eax
  8020e3:	01 50 04             	add    %edx,0x4(%eax)
	return r;
  8020e6:	89 d0                	mov    %edx,%eax
}
  8020e8:	8b 5d fc             	mov    0xfffffffc(%ebp),%ebx
  8020eb:	c9                   	leave  
  8020ec:	c3                   	ret    

008020ed <readn>:

ssize_t
readn(int fdnum, void *buf, size_t n)
{
  8020ed:	55                   	push   %ebp
  8020ee:	89 e5                	mov    %esp,%ebp
  8020f0:	57                   	push   %edi
  8020f1:	56                   	push   %esi
  8020f2:	53                   	push   %ebx
  8020f3:	83 ec 0c             	sub    $0xc,%esp
  8020f6:	8b 7d 0c             	mov    0xc(%ebp),%edi
  8020f9:	8b 75 10             	mov    0x10(%ebp),%esi
	int m, tot;

	for (tot = 0; tot < n; tot += m) {
  8020fc:	bb 00 00 00 00       	mov    $0x0,%ebx
  802101:	39 f3                	cmp    %esi,%ebx
  802103:	73 25                	jae    80212a <readn+0x3d>
		m = read(fdnum, (char*)buf + tot, n - tot);
  802105:	83 ec 04             	sub    $0x4,%esp
  802108:	89 f0                	mov    %esi,%eax
  80210a:	29 d8                	sub    %ebx,%eax
  80210c:	50                   	push   %eax
  80210d:	8d 04 1f             	lea    (%edi,%ebx,1),%eax
  802110:	50                   	push   %eax
  802111:	ff 75 08             	pushl  0x8(%ebp)
  802114:	e8 44 ff ff ff       	call   80205d <read>
		if (m < 0)
  802119:	83 c4 10             	add    $0x10,%esp
  80211c:	85 c0                	test   %eax,%eax
  80211e:	78 0c                	js     80212c <readn+0x3f>
			return m;
		if (m == 0)
  802120:	85 c0                	test   %eax,%eax
  802122:	74 06                	je     80212a <readn+0x3d>
  802124:	01 c3                	add    %eax,%ebx
  802126:	39 f3                	cmp    %esi,%ebx
  802128:	72 db                	jb     802105 <readn+0x18>
			break;
	}
	return tot;
  80212a:	89 d8                	mov    %ebx,%eax
}
  80212c:	8d 65 f4             	lea    0xfffffff4(%ebp),%esp
  80212f:	5b                   	pop    %ebx
  802130:	5e                   	pop    %esi
  802131:	5f                   	pop    %edi
  802132:	c9                   	leave  
  802133:	c3                   	ret    

00802134 <write>:

ssize_t
write(int fdnum, const void *buf, size_t n)
{
  802134:	55                   	push   %ebp
  802135:	89 e5                	mov    %esp,%ebp
  802137:	53                   	push   %ebx
  802138:	83 ec 14             	sub    $0x14,%esp
  80213b:	8b 5d 08             	mov    0x8(%ebp),%ebx
	int r;
	struct Dev *dev;
	struct Fd *fd;

	if ((r = fd_lookup(fdnum, &fd)) < 0
  80213e:	8d 45 f8             	lea    0xfffffff8(%ebp),%eax
  802141:	50                   	push   %eax
  802142:	53                   	push   %ebx
  802143:	e8 82 fc ff ff       	call   801dca <fd_lookup>
  802148:	89 c2                	mov    %eax,%edx
  80214a:	83 c4 08             	add    $0x8,%esp
  80214d:	85 c0                	test   %eax,%eax
  80214f:	78 1a                	js     80216b <write+0x37>
  802151:	83 ec 08             	sub    $0x8,%esp
  802154:	8d 45 f4             	lea    0xfffffff4(%ebp),%eax
  802157:	50                   	push   %eax
  802158:	8b 45 f8             	mov    0xfffffff8(%ebp),%eax
  80215b:	ff 30                	pushl  (%eax)
  80215d:	e8 2a fd ff ff       	call   801e8c <dev_lookup>
  802162:	89 c2                	mov    %eax,%edx
  802164:	83 c4 10             	add    $0x10,%esp
  802167:	85 c0                	test   %eax,%eax
  802169:	79 04                	jns    80216f <write+0x3b>
	    || (r = dev_lookup(fd->fd_dev_id, &dev)) < 0)
		return r;
  80216b:	89 d0                	mov    %edx,%eax
  80216d:	eb 4b                	jmp    8021ba <write+0x86>
	if ((fd->fd_omode & O_ACCMODE) == O_RDONLY) {
  80216f:	8b 45 f8             	mov    0xfffffff8(%ebp),%eax
  802172:	f6 40 08 03          	testb  $0x3,0x8(%eax)
  802176:	75 1e                	jne    802196 <write+0x62>
		cprintf("[%08x] write %d -- bad mode\n", env->env_id, fdnum);
  802178:	83 ec 04             	sub    $0x4,%esp
  80217b:	53                   	push   %ebx
  80217c:	a1 54 e6 b3 00       	mov    0xb3e654,%eax
  802181:	8b 40 4c             	mov    0x4c(%eax),%eax
  802184:	50                   	push   %eax
  802185:	68 21 22 81 00       	push   $0x812221
  80218a:	e8 2d ea ff ff       	call   800bbc <cprintf>
		return -E_INVAL;
  80218f:	b8 fd ff ff ff       	mov    $0xfffffffd,%eax
  802194:	eb 24                	jmp    8021ba <write+0x86>
	}
	if (debug)
		cprintf("write %d %p %d via dev %s\n",
			fdnum, buf, n, dev->dev_name);
	r = (*dev->dev_write)(fd, buf, n, fd->fd_offset);
  802196:	8b 45 f8             	mov    0xfffffff8(%ebp),%eax
  802199:	ff 70 04             	pushl  0x4(%eax)
  80219c:	ff 75 10             	pushl  0x10(%ebp)
  80219f:	ff 75 0c             	pushl  0xc(%ebp)
  8021a2:	50                   	push   %eax
  8021a3:	8b 45 f4             	mov    0xfffffff4(%ebp),%eax
  8021a6:	ff 50 0c             	call   *0xc(%eax)
  8021a9:	89 c2                	mov    %eax,%edx
	if (r > 0)
  8021ab:	83 c4 10             	add    $0x10,%esp
  8021ae:	85 c0                	test   %eax,%eax
  8021b0:	7e 06                	jle    8021b8 <write+0x84>
		fd->fd_offset += r;
  8021b2:	8b 45 f8             	mov    0xfffffff8(%ebp),%eax
  8021b5:	01 50 04             	add    %edx,0x4(%eax)
	return r;
  8021b8:	89 d0                	mov    %edx,%eax
}
  8021ba:	8b 5d fc             	mov    0xfffffffc(%ebp),%ebx
  8021bd:	c9                   	leave  
  8021be:	c3                   	ret    

008021bf <seek>:

int
seek(int fdnum, off_t offset)
{
  8021bf:	55                   	push   %ebp
  8021c0:	89 e5                	mov    %esp,%ebp
  8021c2:	83 ec 04             	sub    $0x4,%esp
	int r;
	struct Fd *fd;

	if ((r = fd_lookup(fdnum, &fd)) < 0)
  8021c5:	8d 45 fc             	lea    0xfffffffc(%ebp),%eax
  8021c8:	50                   	push   %eax
  8021c9:	ff 75 08             	pushl  0x8(%ebp)
  8021cc:	e8 f9 fb ff ff       	call   801dca <fd_lookup>
  8021d1:	83 c4 08             	add    $0x8,%esp
		return r;
  8021d4:	89 c2                	mov    %eax,%edx
  8021d6:	85 c0                	test   %eax,%eax
  8021d8:	78 0e                	js     8021e8 <seek+0x29>
	fd->fd_offset = offset;
  8021da:	8b 55 0c             	mov    0xc(%ebp),%edx
  8021dd:	8b 45 fc             	mov    0xfffffffc(%ebp),%eax
  8021e0:	89 50 04             	mov    %edx,0x4(%eax)
	return 0;
  8021e3:	ba 00 00 00 00       	mov    $0x0,%edx
}
  8021e8:	89 d0                	mov    %edx,%eax
  8021ea:	c9                   	leave  
  8021eb:	c3                   	ret    

008021ec <ftruncate>:

int
ftruncate(int fdnum, off_t newsize)
{
  8021ec:	55                   	push   %ebp
  8021ed:	89 e5                	mov    %esp,%ebp
  8021ef:	53                   	push   %ebx
  8021f0:	83 ec 14             	sub    $0x14,%esp
  8021f3:	8b 5d 08             	mov    0x8(%ebp),%ebx
	int r;
	struct Dev *dev;
	struct Fd *fd;
	if ((r = fd_lookup(fdnum, &fd)) < 0
  8021f6:	8d 45 f8             	lea    0xfffffff8(%ebp),%eax
  8021f9:	50                   	push   %eax
  8021fa:	53                   	push   %ebx
  8021fb:	e8 ca fb ff ff       	call   801dca <fd_lookup>
  802200:	83 c4 08             	add    $0x8,%esp
  802203:	85 c0                	test   %eax,%eax
  802205:	78 4e                	js     802255 <ftruncate+0x69>
  802207:	83 ec 08             	sub    $0x8,%esp
  80220a:	8d 45 f4             	lea    0xfffffff4(%ebp),%eax
  80220d:	50                   	push   %eax
  80220e:	8b 45 f8             	mov    0xfffffff8(%ebp),%eax
  802211:	ff 30                	pushl  (%eax)
  802213:	e8 74 fc ff ff       	call   801e8c <dev_lookup>
  802218:	83 c4 10             	add    $0x10,%esp
  80221b:	85 c0                	test   %eax,%eax
  80221d:	78 36                	js     802255 <ftruncate+0x69>
	    || (r = dev_lookup(fd->fd_dev_id, &dev)) < 0)
		return r;
	if ((fd->fd_omode & O_ACCMODE) == O_RDONLY) {
  80221f:	8b 45 f8             	mov    0xfffffff8(%ebp),%eax
  802222:	f6 40 08 03          	testb  $0x3,0x8(%eax)
  802226:	75 1e                	jne    802246 <ftruncate+0x5a>
		cprintf("[%08x] ftruncate %d -- bad mode\n",
  802228:	83 ec 04             	sub    $0x4,%esp
  80222b:	53                   	push   %ebx
  80222c:	a1 54 e6 b3 00       	mov    0xb3e654,%eax
  802231:	8b 40 4c             	mov    0x4c(%eax),%eax
  802234:	50                   	push   %eax
  802235:	68 e4 21 81 00       	push   $0x8121e4
  80223a:	e8 7d e9 ff ff       	call   800bbc <cprintf>
			env->env_id, fdnum); 
		return -E_INVAL;
  80223f:	b8 fd ff ff ff       	mov    $0xfffffffd,%eax
  802244:	eb 0f                	jmp    802255 <ftruncate+0x69>
	}
	return (*dev->dev_trunc)(fd, newsize);
  802246:	83 ec 08             	sub    $0x8,%esp
  802249:	ff 75 0c             	pushl  0xc(%ebp)
  80224c:	ff 75 f8             	pushl  0xfffffff8(%ebp)
  80224f:	8b 45 f4             	mov    0xfffffff4(%ebp),%eax
  802252:	ff 50 1c             	call   *0x1c(%eax)
}
  802255:	8b 5d fc             	mov    0xfffffffc(%ebp),%ebx
  802258:	c9                   	leave  
  802259:	c3                   	ret    

0080225a <fstat>:

int
fstat(int fdnum, struct Stat *stat)
{
  80225a:	55                   	push   %ebp
  80225b:	89 e5                	mov    %esp,%ebp
  80225d:	53                   	push   %ebx
  80225e:	83 ec 14             	sub    $0x14,%esp
  802261:	8b 5d 0c             	mov    0xc(%ebp),%ebx
	int r;
	struct Dev *dev;
	struct Fd *fd;

	if ((r = fd_lookup(fdnum, &fd)) < 0
  802264:	8d 45 f8             	lea    0xfffffff8(%ebp),%eax
  802267:	50                   	push   %eax
  802268:	ff 75 08             	pushl  0x8(%ebp)
  80226b:	e8 5a fb ff ff       	call   801dca <fd_lookup>
  802270:	83 c4 08             	add    $0x8,%esp
  802273:	85 c0                	test   %eax,%eax
  802275:	78 42                	js     8022b9 <fstat+0x5f>
  802277:	83 ec 08             	sub    $0x8,%esp
  80227a:	8d 45 f4             	lea    0xfffffff4(%ebp),%eax
  80227d:	50                   	push   %eax
  80227e:	8b 45 f8             	mov    0xfffffff8(%ebp),%eax
  802281:	ff 30                	pushl  (%eax)
  802283:	e8 04 fc ff ff       	call   801e8c <dev_lookup>
  802288:	83 c4 10             	add    $0x10,%esp
  80228b:	85 c0                	test   %eax,%eax
  80228d:	78 2a                	js     8022b9 <fstat+0x5f>
	    || (r = dev_lookup(fd->fd_dev_id, &dev)) < 0)
		return r;
	stat->st_name[0] = 0;
  80228f:	c6 03 00             	movb   $0x0,(%ebx)
	stat->st_size = 0;
  802292:	c7 83 80 00 00 00 00 	movl   $0x0,0x80(%ebx)
  802299:	00 00 00 
	stat->st_isdir = 0;
  80229c:	c7 83 84 00 00 00 00 	movl   $0x0,0x84(%ebx)
  8022a3:	00 00 00 
	stat->st_dev = dev;
  8022a6:	8b 45 f4             	mov    0xfffffff4(%ebp),%eax
  8022a9:	89 83 88 00 00 00    	mov    %eax,0x88(%ebx)
	return (*dev->dev_stat)(fd, stat);
  8022af:	83 ec 08             	sub    $0x8,%esp
  8022b2:	53                   	push   %ebx
  8022b3:	ff 75 f8             	pushl  0xfffffff8(%ebp)
  8022b6:	ff 50 14             	call   *0x14(%eax)
}
  8022b9:	8b 5d fc             	mov    0xfffffffc(%ebp),%ebx
  8022bc:	c9                   	leave  
  8022bd:	c3                   	ret    

008022be <stat>:

int
stat(const char *path, struct Stat *stat)
{
  8022be:	55                   	push   %ebp
  8022bf:	89 e5                	mov    %esp,%ebp
  8022c1:	56                   	push   %esi
  8022c2:	53                   	push   %ebx
	int fd, r;

	if ((fd = open(path, O_RDONLY)) < 0)
  8022c3:	83 ec 08             	sub    $0x8,%esp
  8022c6:	6a 00                	push   $0x0
  8022c8:	ff 75 08             	pushl  0x8(%ebp)
  8022cb:	e8 28 00 00 00       	call   8022f8 <open>
  8022d0:	89 c6                	mov    %eax,%esi
  8022d2:	83 c4 10             	add    $0x10,%esp
  8022d5:	85 f6                	test   %esi,%esi
  8022d7:	78 18                	js     8022f1 <stat+0x33>
		return fd;
	r = fstat(fd, stat);
  8022d9:	83 ec 08             	sub    $0x8,%esp
  8022dc:	ff 75 0c             	pushl  0xc(%ebp)
  8022df:	56                   	push   %esi
  8022e0:	e8 75 ff ff ff       	call   80225a <fstat>
  8022e5:	89 c3                	mov    %eax,%ebx
	close(fd);
  8022e7:	89 34 24             	mov    %esi,(%esp)
  8022ea:	e8 fb fb ff ff       	call   801eea <close>
	return r;
  8022ef:	89 d8                	mov    %ebx,%eax
}
  8022f1:	8d 65 f8             	lea    0xfffffff8(%ebp),%esp
  8022f4:	5b                   	pop    %ebx
  8022f5:	5e                   	pop    %esi
  8022f6:	c9                   	leave  
  8022f7:	c3                   	ret    

008022f8 <open>:
// Open a file (or directory),
// returning the file descriptor index on success, < 0 on failure.
int
open(const char *path, int mode)
{
  8022f8:	55                   	push   %ebp
  8022f9:	89 e5                	mov    %esp,%ebp
  8022fb:	53                   	push   %ebx
  8022fc:	83 ec 10             	sub    $0x10,%esp
	// Find an unused file descriptor page using fd_alloc.
	// Then send a message to the file server to open a file
	// using a function in fsipc.c.
	// (fd_alloc does not allocate a page, it just returns an
	// unused fd address.  Do you need to allocate a page?  Look
	// at fsipc.c if you aren't sure.)
	// Then map the file data (you may find fmap() helpful).
	// Return the file descriptor index.
	// If any step fails, use fd_close to free the file descriptor.

	// LAB 5: Your code here.
	// panic("open() unimplemented!");
        int r;
        struct Fd *fd_store;
        if ((r = fd_alloc(&fd_store)) < 0) {
  8022ff:	8d 45 f8             	lea    0xfffffff8(%ebp),%eax
  802302:	50                   	push   %eax
  802303:	e8 68 fa ff ff       	call   801d70 <fd_alloc>
  802308:	89 c3                	mov    %eax,%ebx
  80230a:	83 c4 10             	add    $0x10,%esp
  80230d:	85 db                	test   %ebx,%ebx
  80230f:	78 36                	js     802347 <open+0x4f>
          return r;
        }
	// Do you need to allocate a page?  Look
        if ((r = fsipc_open(path, mode, fd_store)) < 0) {
  802311:	83 ec 04             	sub    $0x4,%esp
  802314:	ff 75 f8             	pushl  0xfffffff8(%ebp)
  802317:	ff 75 0c             	pushl  0xc(%ebp)
  80231a:	ff 75 08             	pushl  0x8(%ebp)
  80231d:	e8 1b 05 00 00       	call   80283d <fsipc_open>
  802322:	89 c3                	mov    %eax,%ebx
  802324:	83 c4 10             	add    $0x10,%esp
  802327:	85 c0                	test   %eax,%eax
  802329:	79 11                	jns    80233c <open+0x44>
          fd_close(fd_store, 0);
  80232b:	83 ec 08             	sub    $0x8,%esp
  80232e:	6a 00                	push   $0x0
  802330:	ff 75 f8             	pushl  0xfffffff8(%ebp)
  802333:	e8 e0 fa ff ff       	call   801e18 <fd_close>
          return r;
  802338:	89 d8                	mov    %ebx,%eax
  80233a:	eb 0b                	jmp    802347 <open+0x4f>
        }
        // Challenge 5:
        /*
        if ((r = fmap(fd_store, 0, fd_store->fd_file.file.f_size)) < 0) {
          fd_close(fd_store, 0);
          return r;
        }
        */
        return fd2num(fd_store);
  80233c:	83 ec 0c             	sub    $0xc,%esp
  80233f:	ff 75 f8             	pushl  0xfffffff8(%ebp)
  802342:	e8 19 fa ff ff       	call   801d60 <fd2num>
}
  802347:	8b 5d fc             	mov    0xfffffffc(%ebp),%ebx
  80234a:	c9                   	leave  
  80234b:	c3                   	ret    

0080234c <file_close>:

// Clean up a file-server file descriptor.
// This function is called by fd_close.
static int
file_close(struct Fd *fd)
{
  80234c:	55                   	push   %ebp
  80234d:	89 e5                	mov    %esp,%ebp
  80234f:	53                   	push   %ebx
  802350:	83 ec 04             	sub    $0x4,%esp
  802353:	8b 5d 08             	mov    0x8(%ebp),%ebx
	// Unmap any data mapped for the file,
	// then tell the file server that we have closed the file
	// (to free up its resources).

	// LAB 5: Your code here.
	//panic("close() unimplemented!");
        int r;
        // should we set bool dirty to be 0 or 1?
        if ((r = funmap(fd, fd->fd_file.file.f_size, 0, 1)) < 0) {
  802356:	6a 01                	push   $0x1
  802358:	6a 00                	push   $0x0
  80235a:	ff b3 90 00 00 00    	pushl  0x90(%ebx)
  802360:	53                   	push   %ebx
  802361:	e8 e7 03 00 00       	call   80274d <funmap>
  802366:	83 c4 10             	add    $0x10,%esp
          return r;
  802369:	89 c2                	mov    %eax,%edx
  80236b:	85 c0                	test   %eax,%eax
  80236d:	78 19                	js     802388 <file_close+0x3c>
        }
        if ((r = fsipc_close(fd->fd_file.id)) < 0) {
  80236f:	83 ec 0c             	sub    $0xc,%esp
  802372:	ff 73 0c             	pushl  0xc(%ebx)
  802375:	e8 68 05 00 00       	call   8028e2 <fsipc_close>
  80237a:	83 c4 10             	add    $0x10,%esp
          return r;
  80237d:	89 c2                	mov    %eax,%edx
  80237f:	85 c0                	test   %eax,%eax
  802381:	78 05                	js     802388 <file_close+0x3c>
        }
        return 0;
  802383:	ba 00 00 00 00       	mov    $0x0,%edx
}
  802388:	89 d0                	mov    %edx,%eax
  80238a:	8b 5d fc             	mov    0xfffffffc(%ebp),%ebx
  80238d:	c9                   	leave  
  80238e:	c3                   	ret    

0080238f <file_read>:

// Read 'n' bytes from 'fd' at the current seek position into 'buf'.
// Since files are memory-mapped, this amounts to a memmove()
// surrounded by a little red tape to handle the file size and seek pointer.
static ssize_t
file_read(struct Fd *fd, void *buf, size_t n, off_t offset)
{
  80238f:	55                   	push   %ebp
  802390:	89 e5                	mov    %esp,%ebp
  802392:	57                   	push   %edi
  802393:	56                   	push   %esi
  802394:	53                   	push   %ebx
  802395:	83 ec 0c             	sub    $0xc,%esp
  802398:	8b 75 10             	mov    0x10(%ebp),%esi
  80239b:	8b 7d 14             	mov    0x14(%ebp),%edi
	size_t size;

        // Challenge 5:
        int r;
        void* paddr;

	// avoid reading past the end of file
	size = fd->fd_file.file.f_size;
  80239e:	8b 45 08             	mov    0x8(%ebp),%eax
  8023a1:	8b 90 90 00 00 00    	mov    0x90(%eax),%edx
	if (offset > size)
		return 0;
  8023a7:	b9 00 00 00 00       	mov    $0x0,%ecx
  8023ac:	39 d7                	cmp    %edx,%edi
  8023ae:	0f 87 95 00 00 00    	ja     802449 <file_read+0xba>
	if (offset + n > size)
  8023b4:	8d 04 37             	lea    (%edi,%esi,1),%eax
  8023b7:	39 d0                	cmp    %edx,%eax
  8023b9:	76 04                	jbe    8023bf <file_read+0x30>
		n = size - offset;
  8023bb:	89 d6                	mov    %edx,%esi
  8023bd:	29 fe                	sub    %edi,%esi

        // Challenge 5
        // Check if the page is mapped yet
        for (paddr = fd2data(fd) + offset; paddr < (void*)(fd2data(fd) + offset + n); paddr += PGSIZE) {
  8023bf:	83 ec 0c             	sub    $0xc,%esp
  8023c2:	ff 75 08             	pushl  0x8(%ebp)
  8023c5:	e8 7e f9 ff ff       	call   801d48 <fd2data>
  8023ca:	89 c3                	mov    %eax,%ebx
  8023cc:	01 fb                	add    %edi,%ebx
  8023ce:	83 c4 10             	add    $0x10,%esp
  8023d1:	eb 41                	jmp    802414 <file_read+0x85>
	  if (!(vpd[PDX(paddr)] & PTE_P) || !(vpt[VPN(paddr)] & PTE_P)) {
  8023d3:	89 d8                	mov    %ebx,%eax
  8023d5:	c1 e8 16             	shr    $0x16,%eax
  8023d8:	8b 04 85 00 d0 7b ef 	mov    0xef7bd000(,%eax,4),%eax
  8023df:	a8 01                	test   $0x1,%al
  8023e1:	74 10                	je     8023f3 <file_read+0x64>
  8023e3:	89 d8                	mov    %ebx,%eax
  8023e5:	c1 e8 0c             	shr    $0xc,%eax
  8023e8:	8b 04 85 00 00 40 ef 	mov    0xef400000(,%eax,4),%eax
  8023ef:	a8 01                	test   $0x1,%al
  8023f1:	75 1b                	jne    80240e <file_read+0x7f>
            // page is not mapped, so map it!
            if ((r = fmap(fd, offset, offset + n)) < 0) {
  8023f3:	83 ec 04             	sub    $0x4,%esp
  8023f6:	8d 04 37             	lea    (%edi,%esi,1),%eax
  8023f9:	50                   	push   %eax
  8023fa:	57                   	push   %edi
  8023fb:	ff 75 08             	pushl  0x8(%ebp)
  8023fe:	e8 d4 02 00 00       	call   8026d7 <fmap>
  802403:	83 c4 10             	add    $0x10,%esp
              return r;
  802406:	89 c1                	mov    %eax,%ecx
  802408:	85 c0                	test   %eax,%eax
  80240a:	78 3d                	js     802449 <file_read+0xba>
  80240c:	eb 1c                	jmp    80242a <file_read+0x9b>
  80240e:	81 c3 00 10 00 00    	add    $0x1000,%ebx
  802414:	83 ec 0c             	sub    $0xc,%esp
  802417:	ff 75 08             	pushl  0x8(%ebp)
  80241a:	e8 29 f9 ff ff       	call   801d48 <fd2data>
  80241f:	01 f8                	add    %edi,%eax
  802421:	01 f0                	add    %esi,%eax
  802423:	83 c4 10             	add    $0x10,%esp
  802426:	39 d8                	cmp    %ebx,%eax
  802428:	77 a9                	ja     8023d3 <file_read+0x44>
            }
            break;
          }
        }

	// read the data by copying from the file mapping
	memmove(buf, fd2data(fd) + offset, n);
  80242a:	83 ec 04             	sub    $0x4,%esp
  80242d:	56                   	push   %esi
  80242e:	83 ec 04             	sub    $0x4,%esp
  802431:	ff 75 08             	pushl  0x8(%ebp)
  802434:	e8 0f f9 ff ff       	call   801d48 <fd2data>
  802439:	83 c4 08             	add    $0x8,%esp
  80243c:	01 f8                	add    %edi,%eax
  80243e:	50                   	push   %eax
  80243f:	ff 75 0c             	pushl  0xc(%ebp)
  802442:	e8 f5 ee ff ff       	call   80133c <memmove>
	return n;
  802447:	89 f1                	mov    %esi,%ecx
}
  802449:	89 c8                	mov    %ecx,%eax
  80244b:	8d 65 f4             	lea    0xfffffff4(%ebp),%esp
  80244e:	5b                   	pop    %ebx
  80244f:	5e                   	pop    %esi
  802450:	5f                   	pop    %edi
  802451:	c9                   	leave  
  802452:	c3                   	ret    

00802453 <read_map>:

// Find the page that maps the file block starting at 'offset',
// and store its address in '*blk'.
int
read_map(int fdnum, off_t offset, void **blk)
{
  802453:	55                   	push   %ebp
  802454:	89 e5                	mov    %esp,%ebp
  802456:	56                   	push   %esi
  802457:	53                   	push   %ebx
  802458:	83 ec 18             	sub    $0x18,%esp
  80245b:	8b 75 0c             	mov    0xc(%ebp),%esi
	int r;
	char *va;
	struct Fd *fd;

	if ((r = fd_lookup(fdnum, &fd)) < 0)
  80245e:	8d 45 f4             	lea    0xfffffff4(%ebp),%eax
  802461:	50                   	push   %eax
  802462:	ff 75 08             	pushl  0x8(%ebp)
  802465:	e8 60 f9 ff ff       	call   801dca <fd_lookup>
  80246a:	83 c4 10             	add    $0x10,%esp
		return r;
  80246d:	89 c2                	mov    %eax,%edx
  80246f:	85 c0                	test   %eax,%eax
  802471:	0f 88 9f 00 00 00    	js     802516 <read_map+0xc3>
	if (fd->fd_dev_id != devfile.dev_id)
  802477:	8b 45 f4             	mov    0xfffffff4(%ebp),%eax
  80247a:	8b 00                	mov    (%eax),%eax
		return -E_INVAL;
  80247c:	ba fd ff ff ff       	mov    $0xfffffffd,%edx
  802481:	3b 05 20 80 81 00    	cmp    0x818020,%eax
  802487:	0f 85 89 00 00 00    	jne    802516 <read_map+0xc3>
	va = fd2data(fd) + offset;
  80248d:	83 ec 0c             	sub    $0xc,%esp
  802490:	ff 75 f4             	pushl  0xfffffff4(%ebp)
  802493:	e8 b0 f8 ff ff       	call   801d48 <fd2data>
  802498:	89 c3                	mov    %eax,%ebx
  80249a:	01 f3                	add    %esi,%ebx

	if (offset >= MAXFILESIZE)
  80249c:	83 c4 10             	add    $0x10,%esp
		return -E_NO_DISK;
  80249f:	ba f7 ff ff ff       	mov    $0xfffffff7,%edx
  8024a4:	81 fe ff ff 3f 00    	cmp    $0x3fffff,%esi
  8024aa:	7f 6a                	jg     802516 <read_map+0xc3>

        // Challenge 5
	if (!(vpd[PDX(va)] & PTE_P) || !(vpt[VPN(va)] & PTE_P)) {
  8024ac:	89 d8                	mov    %ebx,%eax
  8024ae:	c1 e8 16             	shr    $0x16,%eax
  8024b1:	8b 04 85 00 d0 7b ef 	mov    0xef7bd000(,%eax,4),%eax
  8024b8:	a8 01                	test   $0x1,%al
  8024ba:	74 10                	je     8024cc <read_map+0x79>
  8024bc:	89 d8                	mov    %ebx,%eax
  8024be:	c1 e8 0c             	shr    $0xc,%eax
  8024c1:	8b 04 85 00 00 40 ef 	mov    0xef400000(,%eax,4),%eax
  8024c8:	a8 01                	test   $0x1,%al
  8024ca:	75 19                	jne    8024e5 <read_map+0x92>
          // page is not mapped, so map it!
          if ((r = fmap(fd, offset, offset + 1)) < 0) {
  8024cc:	83 ec 04             	sub    $0x4,%esp
  8024cf:	8d 46 01             	lea    0x1(%esi),%eax
  8024d2:	50                   	push   %eax
  8024d3:	56                   	push   %esi
  8024d4:	ff 75 f4             	pushl  0xfffffff4(%ebp)
  8024d7:	e8 fb 01 00 00       	call   8026d7 <fmap>
  8024dc:	83 c4 10             	add    $0x10,%esp
            return r;
  8024df:	89 c2                	mov    %eax,%edx
  8024e1:	85 c0                	test   %eax,%eax
  8024e3:	78 31                	js     802516 <read_map+0xc3>
          }
        }

	if (!(vpd[PDX(va)] & PTE_P) || !(vpt[VPN(va)] & PTE_P))
  8024e5:	89 d8                	mov    %ebx,%eax
  8024e7:	c1 e8 16             	shr    $0x16,%eax
  8024ea:	8b 04 85 00 d0 7b ef 	mov    0xef7bd000(,%eax,4),%eax
  8024f1:	a8 01                	test   $0x1,%al
  8024f3:	74 10                	je     802505 <read_map+0xb2>
  8024f5:	89 d8                	mov    %ebx,%eax
  8024f7:	c1 e8 0c             	shr    $0xc,%eax
  8024fa:	8b 04 85 00 00 40 ef 	mov    0xef400000(,%eax,4),%eax
  802501:	a8 01                	test   $0x1,%al
  802503:	75 07                	jne    80250c <read_map+0xb9>
		return -E_NO_DISK;
  802505:	ba f7 ff ff ff       	mov    $0xfffffff7,%edx
  80250a:	eb 0a                	jmp    802516 <read_map+0xc3>

	*blk = (void*) va;
  80250c:	8b 45 10             	mov    0x10(%ebp),%eax
  80250f:	89 18                	mov    %ebx,(%eax)
	return 0;
  802511:	ba 00 00 00 00       	mov    $0x0,%edx
}
  802516:	89 d0                	mov    %edx,%eax
  802518:	8d 65 f8             	lea    0xfffffff8(%ebp),%esp
  80251b:	5b                   	pop    %ebx
  80251c:	5e                   	pop    %esi
  80251d:	c9                   	leave  
  80251e:	c3                   	ret    

0080251f <file_write>:

// Write 'n' bytes from 'buf' to 'fd' at the current seek position.
static ssize_t
file_write(struct Fd *fd, const void *buf, size_t n, off_t offset)
{
  80251f:	55                   	push   %ebp
  802520:	89 e5                	mov    %esp,%ebp
  802522:	57                   	push   %edi
  802523:	56                   	push   %esi
  802524:	53                   	push   %ebx
  802525:	83 ec 0c             	sub    $0xc,%esp
  802528:	8b 75 08             	mov    0x8(%ebp),%esi
  80252b:	8b 7d 14             	mov    0x14(%ebp),%edi
	int r;
	size_t tot;

        // Challenge 5:
        void* paddr;

	// don't write past the maximum file size
	tot = offset + n;
  80252e:	8b 45 10             	mov    0x10(%ebp),%eax
  802531:	8d 14 07             	lea    (%edi,%eax,1),%edx
	if (tot > MAXFILESIZE)
		return -E_NO_DISK;
  802534:	b9 f7 ff ff ff       	mov    $0xfffffff7,%ecx
  802539:	81 fa 00 00 40 00    	cmp    $0x400000,%edx
  80253f:	0f 87 bd 00 00 00    	ja     802602 <file_write+0xe3>

	// increase the file's size if necessary
	if (tot > fd->fd_file.file.f_size) {
  802545:	39 96 90 00 00 00    	cmp    %edx,0x90(%esi)
  80254b:	73 17                	jae    802564 <file_write+0x45>
		if ((r = file_trunc(fd, tot)) < 0)
  80254d:	83 ec 08             	sub    $0x8,%esp
  802550:	52                   	push   %edx
  802551:	56                   	push   %esi
  802552:	e8 fb 00 00 00       	call   802652 <file_trunc>
  802557:	83 c4 10             	add    $0x10,%esp
			return r;
  80255a:	89 c1                	mov    %eax,%ecx
  80255c:	85 c0                	test   %eax,%eax
  80255e:	0f 88 9e 00 00 00    	js     802602 <file_write+0xe3>
	}

        // Challenge 5:
        // Check if the page is mapped yet
        for (paddr = fd2data(fd) + offset; paddr < (void*)(fd2data(fd) + offset + n); paddr += PGSIZE) {
  802564:	83 ec 0c             	sub    $0xc,%esp
  802567:	56                   	push   %esi
  802568:	e8 db f7 ff ff       	call   801d48 <fd2data>
  80256d:	89 c3                	mov    %eax,%ebx
  80256f:	01 fb                	add    %edi,%ebx
  802571:	83 c4 10             	add    $0x10,%esp
  802574:	eb 42                	jmp    8025b8 <file_write+0x99>
	  if (!(vpd[PDX(paddr)] & PTE_P) || !(vpt[VPN(paddr)] & PTE_P)) {
  802576:	89 d8                	mov    %ebx,%eax
  802578:	c1 e8 16             	shr    $0x16,%eax
  80257b:	8b 04 85 00 d0 7b ef 	mov    0xef7bd000(,%eax,4),%eax
  802582:	a8 01                	test   $0x1,%al
  802584:	74 10                	je     802596 <file_write+0x77>
  802586:	89 d8                	mov    %ebx,%eax
  802588:	c1 e8 0c             	shr    $0xc,%eax
  80258b:	8b 04 85 00 00 40 ef 	mov    0xef400000(,%eax,4),%eax
  802592:	a8 01                	test   $0x1,%al
  802594:	75 1c                	jne    8025b2 <file_write+0x93>
            // page is not mapped, so map it!
            if ((r = fmap(fd, offset, offset + n)) < 0) {
  802596:	83 ec 04             	sub    $0x4,%esp
  802599:	8b 55 10             	mov    0x10(%ebp),%edx
  80259c:	8d 04 17             	lea    (%edi,%edx,1),%eax
  80259f:	50                   	push   %eax
  8025a0:	57                   	push   %edi
  8025a1:	56                   	push   %esi
  8025a2:	e8 30 01 00 00       	call   8026d7 <fmap>
  8025a7:	83 c4 10             	add    $0x10,%esp
              return r;
  8025aa:	89 c1                	mov    %eax,%ecx
  8025ac:	85 c0                	test   %eax,%eax
  8025ae:	78 52                	js     802602 <file_write+0xe3>
  8025b0:	eb 1b                	jmp    8025cd <file_write+0xae>
  8025b2:	81 c3 00 10 00 00    	add    $0x1000,%ebx
  8025b8:	83 ec 0c             	sub    $0xc,%esp
  8025bb:	56                   	push   %esi
  8025bc:	e8 87 f7 ff ff       	call   801d48 <fd2data>
  8025c1:	01 f8                	add    %edi,%eax
  8025c3:	03 45 10             	add    0x10(%ebp),%eax
  8025c6:	83 c4 10             	add    $0x10,%esp
  8025c9:	39 d8                	cmp    %ebx,%eax
  8025cb:	77 a9                	ja     802576 <file_write+0x57>
            }
            break;
          }
        }

	// write the data
        cprintf("write write\n");
  8025cd:	83 ec 0c             	sub    $0xc,%esp
  8025d0:	68 3e 22 81 00       	push   $0x81223e
  8025d5:	e8 e2 e5 ff ff       	call   800bbc <cprintf>
	memmove(fd2data(fd) + offset, buf, n);
  8025da:	83 c4 0c             	add    $0xc,%esp
  8025dd:	ff 75 10             	pushl  0x10(%ebp)
  8025e0:	ff 75 0c             	pushl  0xc(%ebp)
  8025e3:	56                   	push   %esi
  8025e4:	e8 5f f7 ff ff       	call   801d48 <fd2data>
  8025e9:	01 f8                	add    %edi,%eax
  8025eb:	89 04 24             	mov    %eax,(%esp)
  8025ee:	e8 49 ed ff ff       	call   80133c <memmove>
        cprintf("write done\n");
  8025f3:	c7 04 24 4b 22 81 00 	movl   $0x81224b,(%esp)
  8025fa:	e8 bd e5 ff ff       	call   800bbc <cprintf>
	return n;
  8025ff:	8b 4d 10             	mov    0x10(%ebp),%ecx
}
  802602:	89 c8                	mov    %ecx,%eax
  802604:	8d 65 f4             	lea    0xfffffff4(%ebp),%esp
  802607:	5b                   	pop    %ebx
  802608:	5e                   	pop    %esi
  802609:	5f                   	pop    %edi
  80260a:	c9                   	leave  
  80260b:	c3                   	ret    

0080260c <file_stat>:

static int
file_stat(struct Fd *fd, struct Stat *st)
{
  80260c:	55                   	push   %ebp
  80260d:	89 e5                	mov    %esp,%ebp
  80260f:	56                   	push   %esi
  802610:	53                   	push   %ebx
  802611:	8b 5d 08             	mov    0x8(%ebp),%ebx
  802614:	8b 75 0c             	mov    0xc(%ebp),%esi
	strcpy(st->st_name, fd->fd_file.file.f_name);
  802617:	83 ec 08             	sub    $0x8,%esp
  80261a:	8d 43 10             	lea    0x10(%ebx),%eax
  80261d:	50                   	push   %eax
  80261e:	56                   	push   %esi
  80261f:	e8 9c eb ff ff       	call   8011c0 <strcpy>
	st->st_size = fd->fd_file.file.f_size;
  802624:	8b 83 90 00 00 00    	mov    0x90(%ebx),%eax
  80262a:	89 86 80 00 00 00    	mov    %eax,0x80(%esi)
	st->st_isdir = (fd->fd_file.file.f_type == FTYPE_DIR);
  802630:	83 c4 10             	add    $0x10,%esp
  802633:	83 bb 94 00 00 00 01 	cmpl   $0x1,0x94(%ebx)
  80263a:	0f 94 c0             	sete   %al
  80263d:	0f b6 c0             	movzbl %al,%eax
  802640:	89 86 84 00 00 00    	mov    %eax,0x84(%esi)
	return 0;
}
  802646:	b8 00 00 00 00       	mov    $0x0,%eax
  80264b:	8d 65 f8             	lea    0xfffffff8(%ebp),%esp
  80264e:	5b                   	pop    %ebx
  80264f:	5e                   	pop    %esi
  802650:	c9                   	leave  
  802651:	c3                   	ret    

00802652 <file_trunc>:

// Truncate or extend an open file to 'size' bytes
static int
file_trunc(struct Fd *fd, off_t newsize)
{
  802652:	55                   	push   %ebp
  802653:	89 e5                	mov    %esp,%ebp
  802655:	57                   	push   %edi
  802656:	56                   	push   %esi
  802657:	53                   	push   %ebx
  802658:	83 ec 0c             	sub    $0xc,%esp
  80265b:	8b 75 08             	mov    0x8(%ebp),%esi
  80265e:	8b 5d 0c             	mov    0xc(%ebp),%ebx
	int r;
	off_t oldsize;
	uint32_t fileid;

	if (newsize > MAXFILESIZE)
		return -E_NO_DISK;
  802661:	ba f7 ff ff ff       	mov    $0xfffffff7,%edx
  802666:	81 fb 00 00 40 00    	cmp    $0x400000,%ebx
  80266c:	7f 5f                	jg     8026cd <file_trunc+0x7b>

	fileid = fd->fd_file.id;
	oldsize = fd->fd_file.file.f_size;
  80266e:	8b be 90 00 00 00    	mov    0x90(%esi),%edi
	if ((r = fsipc_set_size(fileid, newsize)) < 0)
  802674:	83 ec 08             	sub    $0x8,%esp
  802677:	53                   	push   %ebx
  802678:	ff 76 0c             	pushl  0xc(%esi)
  80267b:	e8 3a 02 00 00       	call   8028ba <fsipc_set_size>
  802680:	83 c4 10             	add    $0x10,%esp
		return r;
  802683:	89 c2                	mov    %eax,%edx
  802685:	85 c0                	test   %eax,%eax
  802687:	78 44                	js     8026cd <file_trunc+0x7b>
	assert(fd->fd_file.file.f_size == newsize);
  802689:	39 9e 90 00 00 00    	cmp    %ebx,0x90(%esi)
  80268f:	74 19                	je     8026aa <file_trunc+0x58>
  802691:	68 78 22 81 00       	push   $0x812278
  802696:	68 57 22 81 00       	push   $0x812257
  80269b:	68 dc 00 00 00       	push   $0xdc
  8026a0:	68 6c 22 81 00       	push   $0x81226c
  8026a5:	e8 22 e4 ff ff       	call   800acc <_panic>

	if ((r = fmap(fd, oldsize, newsize)) < 0)
  8026aa:	83 ec 04             	sub    $0x4,%esp
  8026ad:	53                   	push   %ebx
  8026ae:	57                   	push   %edi
  8026af:	56                   	push   %esi
  8026b0:	e8 22 00 00 00       	call   8026d7 <fmap>
  8026b5:	83 c4 10             	add    $0x10,%esp
		return r;
  8026b8:	89 c2                	mov    %eax,%edx
  8026ba:	85 c0                	test   %eax,%eax
  8026bc:	78 0f                	js     8026cd <file_trunc+0x7b>
	funmap(fd, oldsize, newsize, 0);
  8026be:	6a 00                	push   $0x0
  8026c0:	53                   	push   %ebx
  8026c1:	57                   	push   %edi
  8026c2:	56                   	push   %esi
  8026c3:	e8 85 00 00 00       	call   80274d <funmap>

	return 0;
  8026c8:	ba 00 00 00 00       	mov    $0x0,%edx
}
  8026cd:	89 d0                	mov    %edx,%eax
  8026cf:	8d 65 f4             	lea    0xfffffff4(%ebp),%esp
  8026d2:	5b                   	pop    %ebx
  8026d3:	5e                   	pop    %esi
  8026d4:	5f                   	pop    %edi
  8026d5:	c9                   	leave  
  8026d6:	c3                   	ret    

008026d7 <fmap>:

// Call the file system server to obtain and map file pages
// when the size of the file as mapped in our memory increases.
// Harmlessly does nothing if oldsize >= newsize.
// Returns 0 on success, < 0 on error.
// If there is an error, unmaps any newly allocated pages.
//
// Hint: Use fd2data to get the start of the file mapping area for fd.
// Hint: You can use ROUNDUP to page-align offsets.
static int
fmap(struct Fd* fd, off_t oldsize, off_t newsize)
{
  8026d7:	55                   	push   %ebp
  8026d8:	89 e5                	mov    %esp,%ebp
  8026da:	57                   	push   %edi
  8026db:	56                   	push   %esi
  8026dc:	53                   	push   %ebx
  8026dd:	83 ec 0c             	sub    $0xc,%esp
  8026e0:	8b 7d 08             	mov    0x8(%ebp),%edi
  8026e3:	8b 75 10             	mov    0x10(%ebp),%esi
	// LAB 5: Your code here.
	//panic("fmap not implemented");
	//return -E_UNSPECIFIED;

	char *fma; // file mapping area
        int pidx;
        int r;
        if (oldsize < newsize) {
  8026e6:	39 75 0c             	cmp    %esi,0xc(%ebp)
  8026e9:	7d 55                	jge    802740 <fmap+0x69>
          fma = fd2data(fd);
  8026eb:	83 ec 0c             	sub    $0xc,%esp
  8026ee:	57                   	push   %edi
  8026ef:	e8 54 f6 ff ff       	call   801d48 <fd2data>
  8026f4:	89 45 f0             	mov    %eax,0xfffffff0(%ebp)
          for (pidx = ROUNDUP(oldsize, PGSIZE); pidx < newsize; pidx += PGSIZE) {
  8026f7:	83 c4 10             	add    $0x10,%esp
  8026fa:	8b 45 0c             	mov    0xc(%ebp),%eax
  8026fd:	05 ff 0f 00 00       	add    $0xfff,%eax
  802702:	89 c3                	mov    %eax,%ebx
  802704:	81 e3 00 f0 ff ff    	and    $0xfffff000,%ebx
  80270a:	39 f3                	cmp    %esi,%ebx
  80270c:	7d 32                	jge    802740 <fmap+0x69>
            if ((r = fsipc_map(fd->fd_file.id, pidx, fma + pidx)) < 0) {
  80270e:	83 ec 04             	sub    $0x4,%esp
  802711:	8b 45 f0             	mov    0xfffffff0(%ebp),%eax
  802714:	01 d8                	add    %ebx,%eax
  802716:	50                   	push   %eax
  802717:	53                   	push   %ebx
  802718:	ff 77 0c             	pushl  0xc(%edi)
  80271b:	e8 6f 01 00 00       	call   80288f <fsipc_map>
  802720:	83 c4 10             	add    $0x10,%esp
  802723:	85 c0                	test   %eax,%eax
  802725:	79 0f                	jns    802736 <fmap+0x5f>
              // unmap because of error
              funmap(fd, pidx, oldsize, 0);
  802727:	6a 00                	push   $0x0
  802729:	ff 75 0c             	pushl  0xc(%ebp)
  80272c:	53                   	push   %ebx
  80272d:	57                   	push   %edi
  80272e:	e8 1a 00 00 00       	call   80274d <funmap>
  802733:	83 c4 10             	add    $0x10,%esp
  802736:	81 c3 00 10 00 00    	add    $0x1000,%ebx
  80273c:	39 f3                	cmp    %esi,%ebx
  80273e:	7c ce                	jl     80270e <fmap+0x37>
            }
          }
        }

        return 0;
}
  802740:	b8 00 00 00 00       	mov    $0x0,%eax
  802745:	8d 65 f4             	lea    0xfffffff4(%ebp),%esp
  802748:	5b                   	pop    %ebx
  802749:	5e                   	pop    %esi
  80274a:	5f                   	pop    %edi
  80274b:	c9                   	leave  
  80274c:	c3                   	ret    

0080274d <funmap>:

// Unmap any file pages that no longer represent valid file pages
// when the size of the file as mapped in our address space decreases.
// Harmlessly does nothing if newsize >= oldsize.
//
// Hint: Remember to call fsipc_dirty if dirty is true and PTE_D bit
// is set in the pagetable entry.
// Hint: Use fd2data to get the start of the file mapping area for fd.
// Hint: You can use ROUNDUP to page-align offsets.
static int
funmap(struct Fd* fd, off_t oldsize, off_t newsize, bool dirty)
{
  80274d:	55                   	push   %ebp
  80274e:	89 e5                	mov    %esp,%ebp
  802750:	57                   	push   %edi
  802751:	56                   	push   %esi
  802752:	53                   	push   %ebx
  802753:	83 ec 0c             	sub    $0xc,%esp
  802756:	8b 75 0c             	mov    0xc(%ebp),%esi
  802759:	8b 5d 10             	mov    0x10(%ebp),%ebx
	// LAB 5: Your code here.
	//panic("funmap not implemented");
	//return -E_UNSPECIFIED;

	char *fma; // file mapping area
        int pidx;
        int r;
        if (newsize < oldsize) {
  80275c:	39 f3                	cmp    %esi,%ebx
  80275e:	0f 8d 80 00 00 00    	jge    8027e4 <funmap+0x97>
          fma = fd2data(fd);
  802764:	83 ec 0c             	sub    $0xc,%esp
  802767:	ff 75 08             	pushl  0x8(%ebp)
  80276a:	e8 d9 f5 ff ff       	call   801d48 <fd2data>
  80276f:	89 c7                	mov    %eax,%edi
          for (pidx = ROUNDUP(newsize, PGSIZE); pidx < oldsize; pidx += PGSIZE) {
  802771:	83 c4 10             	add    $0x10,%esp
  802774:	8d 83 ff 0f 00 00    	lea    0xfff(%ebx),%eax
  80277a:	89 c3                	mov    %eax,%ebx
  80277c:	81 e3 00 f0 ff ff    	and    $0xfffff000,%ebx
  802782:	39 f3                	cmp    %esi,%ebx
  802784:	7d 5e                	jge    8027e4 <funmap+0x97>
            if (vpt[VPN(fma + pidx)] & PTE_P) { // present
  802786:	8d 04 1f             	lea    (%edi,%ebx,1),%eax
  802789:	89 c2                	mov    %eax,%edx
  80278b:	c1 ea 0c             	shr    $0xc,%edx
  80278e:	8b 04 95 00 00 40 ef 	mov    0xef400000(,%edx,4),%eax
  802795:	a8 01                	test   $0x1,%al
  802797:	74 41                	je     8027da <funmap+0x8d>
              if (dirty) {
  802799:	83 7d 14 00          	cmpl   $0x0,0x14(%ebp)
  80279d:	74 21                	je     8027c0 <funmap+0x73>
                if (vpt[VPN(fma + pidx)] & PTE_D) {
  80279f:	8b 04 95 00 00 40 ef 	mov    0xef400000(,%edx,4),%eax
  8027a6:	a8 40                	test   $0x40,%al
  8027a8:	74 16                	je     8027c0 <funmap+0x73>
                  if ((r = fsipc_dirty(fd->fd_file.id, pidx)) < 0) {
  8027aa:	83 ec 08             	sub    $0x8,%esp
  8027ad:	53                   	push   %ebx
  8027ae:	8b 45 08             	mov    0x8(%ebp),%eax
  8027b1:	ff 70 0c             	pushl  0xc(%eax)
  8027b4:	e8 49 01 00 00       	call   802902 <fsipc_dirty>
  8027b9:	83 c4 10             	add    $0x10,%esp
  8027bc:	85 c0                	test   %eax,%eax
  8027be:	78 29                	js     8027e9 <funmap+0x9c>
                    return r;
                  }
                }
              }
              sys_page_unmap(sys_getenvid(), fma + pidx);
  8027c0:	83 ec 08             	sub    $0x8,%esp
  8027c3:	8d 04 1f             	lea    (%edi,%ebx,1),%eax
  8027c6:	50                   	push   %eax
  8027c7:	83 ec 04             	sub    $0x4,%esp
  8027ca:	e8 85 ed ff ff       	call   801554 <sys_getenvid>
  8027cf:	89 04 24             	mov    %eax,(%esp)
  8027d2:	e8 40 ee ff ff       	call   801617 <sys_page_unmap>
  8027d7:	83 c4 10             	add    $0x10,%esp
  8027da:	81 c3 00 10 00 00    	add    $0x1000,%ebx
  8027e0:	39 f3                	cmp    %esi,%ebx
  8027e2:	7c a2                	jl     802786 <funmap+0x39>
            }
          }
        }

        return 0;
  8027e4:	b8 00 00 00 00       	mov    $0x0,%eax
}
  8027e9:	8d 65 f4             	lea    0xfffffff4(%ebp),%esp
  8027ec:	5b                   	pop    %ebx
  8027ed:	5e                   	pop    %esi
  8027ee:	5f                   	pop    %edi
  8027ef:	c9                   	leave  
  8027f0:	c3                   	ret    

008027f1 <remove>:

// Delete a file
int
remove(const char *path)
{
  8027f1:	55                   	push   %ebp
  8027f2:	89 e5                	mov    %esp,%ebp
  8027f4:	83 ec 14             	sub    $0x14,%esp
	return fsipc_remove(path);
  8027f7:	ff 75 08             	pushl  0x8(%ebp)
  8027fa:	e8 2b 01 00 00       	call   80292a <fsipc_remove>
}
  8027ff:	c9                   	leave  
  802800:	c3                   	ret    

00802801 <sync>:

// Synchronize disk with buffer cache
int
sync(void)
{
  802801:	55                   	push   %ebp
  802802:	89 e5                	mov    %esp,%ebp
  802804:	83 ec 08             	sub    $0x8,%esp
	return fsipc_sync();
  802807:	e8 64 01 00 00       	call   802970 <fsipc_sync>
}
  80280c:	c9                   	leave  
  80280d:	c3                   	ret    
	...

00802810 <fsipc>:
// *perm: permissions of received page.
// Returns 0 if successful, < 0 on failure.
static int
fsipc(unsigned type, void *fsreq, void *dstva, int *perm)
{
  802810:	55                   	push   %ebp
  802811:	89 e5                	mov    %esp,%ebp
  802813:	83 ec 08             	sub    $0x8,%esp
	envid_t whom;

	if (debug)
		cprintf("[%08x] fsipc %d %08x\n", env->env_id, type, fsipcbuf);

	ipc_send(envs[1].env_id, type, fsreq, PTE_P | PTE_W | PTE_U);
  802816:	6a 07                	push   $0x7
  802818:	ff 75 0c             	pushl  0xc(%ebp)
  80281b:	ff 75 08             	pushl  0x8(%ebp)
  80281e:	a1 cc 00 c0 ee       	mov    0xeec000cc,%eax
  802823:	50                   	push   %eax
  802824:	e8 c6 f4 ff ff       	call   801cef <ipc_send>
	return ipc_recv(&whom, dstva, perm);
  802829:	83 c4 0c             	add    $0xc,%esp
  80282c:	ff 75 14             	pushl  0x14(%ebp)
  80282f:	ff 75 10             	pushl  0x10(%ebp)
  802832:	8d 45 fc             	lea    0xfffffffc(%ebp),%eax
  802835:	50                   	push   %eax
  802836:	e8 51 f4 ff ff       	call   801c8c <ipc_recv>
}
  80283b:	c9                   	leave  
  80283c:	c3                   	ret    

0080283d <fsipc_open>:

// Send file-open request to the file server.
// Includes 'path' and 'omode' in request,
// and on reply maps the returned file descriptor page
// at the address indicated by the caller in 'fd'.
// Returns 0 on success, < 0 on failure.
int
fsipc_open(const char *path, int omode, struct Fd *fd)
{
  80283d:	55                   	push   %ebp
  80283e:	89 e5                	mov    %esp,%ebp
  802840:	56                   	push   %esi
  802841:	53                   	push   %ebx
  802842:	83 ec 1c             	sub    $0x1c,%esp
  802845:	8b 75 08             	mov    0x8(%ebp),%esi
	int perm;
	struct Fsreq_open *req;

	req = (struct Fsreq_open*)fsipcbuf;
  802848:	bb 00 50 81 00       	mov    $0x815000,%ebx
	if (strlen(path) >= MAXPATHLEN)
  80284d:	56                   	push   %esi
  80284e:	e8 31 e9 ff ff       	call   801184 <strlen>
  802853:	83 c4 10             	add    $0x10,%esp
		return -E_BAD_PATH;
  802856:	ba f4 ff ff ff       	mov    $0xfffffff4,%edx
  80285b:	3d ff 03 00 00       	cmp    $0x3ff,%eax
  802860:	7f 24                	jg     802886 <fsipc_open+0x49>
	strcpy(req->req_path, path);
  802862:	83 ec 08             	sub    $0x8,%esp
  802865:	56                   	push   %esi
  802866:	53                   	push   %ebx
  802867:	e8 54 e9 ff ff       	call   8011c0 <strcpy>
	req->req_omode = omode;
  80286c:	8b 45 0c             	mov    0xc(%ebp),%eax
  80286f:	89 83 00 04 00 00    	mov    %eax,0x400(%ebx)

	return fsipc(FSREQ_OPEN, req, fd, &perm);
  802875:	8d 45 f4             	lea    0xfffffff4(%ebp),%eax
  802878:	50                   	push   %eax
  802879:	ff 75 10             	pushl  0x10(%ebp)
  80287c:	53                   	push   %ebx
  80287d:	6a 01                	push   $0x1
  80287f:	e8 8c ff ff ff       	call   802810 <fsipc>
  802884:	89 c2                	mov    %eax,%edx
}
  802886:	89 d0                	mov    %edx,%eax
  802888:	8d 65 f8             	lea    0xfffffff8(%ebp),%esp
  80288b:	5b                   	pop    %ebx
  80288c:	5e                   	pop    %esi
  80288d:	c9                   	leave  
  80288e:	c3                   	ret    

0080288f <fsipc_map>:

// Make a map-block request to the file server.
// We send the fileid and the (byte) offset of the desired block in the file,
// and the server sends us back a mapping for a page containing that block.
// Returns 0 on success, < 0 on failure.
int
fsipc_map(int fileid, off_t offset, void *dstva)
{
  80288f:	55                   	push   %ebp
  802890:	89 e5                	mov    %esp,%ebp
  802892:	83 ec 08             	sub    $0x8,%esp
	// LAB 5: Your code here.
	//panic("fsipc_map not implemented");

	int perm;
	struct Fsreq_map *req;
	req = (struct Fsreq_map*)fsipcbuf;
        req->req_fileid = fileid;
  802895:	8b 45 08             	mov    0x8(%ebp),%eax
  802898:	a3 00 50 81 00       	mov    %eax,0x815000
        req->req_offset = offset;
  80289d:	8b 45 0c             	mov    0xc(%ebp),%eax
  8028a0:	a3 04 50 81 00       	mov    %eax,0x815004
	return fsipc(FSREQ_MAP, req, dstva, &perm);
  8028a5:	8d 45 fc             	lea    0xfffffffc(%ebp),%eax
  8028a8:	50                   	push   %eax
  8028a9:	ff 75 10             	pushl  0x10(%ebp)
  8028ac:	68 00 50 81 00       	push   $0x815000
  8028b1:	6a 02                	push   $0x2
  8028b3:	e8 58 ff ff ff       	call   802810 <fsipc>

	//return -E_UNSPECIFIED;
}
  8028b8:	c9                   	leave  
  8028b9:	c3                   	ret    

008028ba <fsipc_set_size>:

// Make a set-file-size request to the file server.
int
fsipc_set_size(int fileid, off_t size)
{
  8028ba:	55                   	push   %ebp
  8028bb:	89 e5                	mov    %esp,%ebp
  8028bd:	83 ec 08             	sub    $0x8,%esp
	struct Fsreq_set_size *req;

	req = (struct Fsreq_set_size*) fsipcbuf;
	req->req_fileid = fileid;
  8028c0:	8b 45 08             	mov    0x8(%ebp),%eax
  8028c3:	a3 00 50 81 00       	mov    %eax,0x815000
	req->req_size = size;
  8028c8:	8b 45 0c             	mov    0xc(%ebp),%eax
  8028cb:	a3 04 50 81 00       	mov    %eax,0x815004
	return fsipc(FSREQ_SET_SIZE, req, 0, 0);
  8028d0:	6a 00                	push   $0x0
  8028d2:	6a 00                	push   $0x0
  8028d4:	68 00 50 81 00       	push   $0x815000
  8028d9:	6a 03                	push   $0x3
  8028db:	e8 30 ff ff ff       	call   802810 <fsipc>
}
  8028e0:	c9                   	leave  
  8028e1:	c3                   	ret    

008028e2 <fsipc_close>:

// Make a file-close request to the file server.
// After this the fileid is invalid.
int
fsipc_close(int fileid)
{
  8028e2:	55                   	push   %ebp
  8028e3:	89 e5                	mov    %esp,%ebp
  8028e5:	83 ec 08             	sub    $0x8,%esp
	struct Fsreq_close *req;

	req = (struct Fsreq_close*) fsipcbuf;
	req->req_fileid = fileid;
  8028e8:	8b 45 08             	mov    0x8(%ebp),%eax
  8028eb:	a3 00 50 81 00       	mov    %eax,0x815000
	return fsipc(FSREQ_CLOSE, req, 0, 0);
  8028f0:	6a 00                	push   $0x0
  8028f2:	6a 00                	push   $0x0
  8028f4:	68 00 50 81 00       	push   $0x815000
  8028f9:	6a 04                	push   $0x4
  8028fb:	e8 10 ff ff ff       	call   802810 <fsipc>
}
  802900:	c9                   	leave  
  802901:	c3                   	ret    

00802902 <fsipc_dirty>:

// Ask the file server to mark a particular file block dirty.
int
fsipc_dirty(int fileid, off_t offset)
{
  802902:	55                   	push   %ebp
  802903:	89 e5                	mov    %esp,%ebp
  802905:	83 ec 08             	sub    $0x8,%esp
	// LAB 5: Your code here.
	//panic("fsipc_dirty not implemented");
	//return -E_UNSPECIFIED;

	int perm;
	struct Fsreq_dirty *req;
	req = (struct Fsreq_dirty*)fsipcbuf;
        req->req_fileid = fileid;
  802908:	8b 45 08             	mov    0x8(%ebp),%eax
  80290b:	a3 00 50 81 00       	mov    %eax,0x815000
        req->req_offset = offset;
  802910:	8b 45 0c             	mov    0xc(%ebp),%eax
