
kernel:     file format elf32-i386


Disassembly of section .text:

00100000 <brelse>:
}

// Release the buffer b.
void
brelse(struct buf *b)
{
  100000:	55                   	push   %ebp
  100001:	89 e5                	mov    %esp,%ebp
  100003:	53                   	push   %ebx
  100004:	83 ec 04             	sub    $0x4,%esp
  100007:	8b 5d 08             	mov    0x8(%ebp),%ebx
  if((b->flags & B_BUSY) == 0)
  10000a:	f6 03 01             	testb  $0x1,(%ebx)
  10000d:	74 54                	je     100063 <brelse+0x63>
    panic("brelse");

  acquire(&bcache.lock);
  10000f:	c7 04 24 20 80 10 00 	movl   $0x108020,(%esp)
  100016:	e8 95 3e 00 00       	call   103eb0 <acquire>

  b->next->prev = b->prev;
  10001b:	8b 53 10             	mov    0x10(%ebx),%edx
  10001e:	8b 43 0c             	mov    0xc(%ebx),%eax
  b->next = bcache.head.next;
  b->prev = &bcache.head;
  bcache.head.next->prev = b;
  bcache.head.next = b;

  b->flags &= ~B_BUSY;
  100021:	83 23 fe             	andl   $0xfffffffe,(%ebx)
  if((b->flags & B_BUSY) == 0)
    panic("brelse");

  acquire(&bcache.lock);

  b->next->prev = b->prev;
  100024:	89 42 0c             	mov    %eax,0xc(%edx)
  b->prev->next = b->next;
  100027:	8b 43 0c             	mov    0xc(%ebx),%eax
  b->next = bcache.head.next;
  b->prev = &bcache.head;
  10002a:	c7 43 0c 44 95 10 00 	movl   $0x109544,0xc(%ebx)
    panic("brelse");

  acquire(&bcache.lock);

  b->next->prev = b->prev;
  b->prev->next = b->next;
  100031:	89 50 10             	mov    %edx,0x10(%eax)
  b->next = bcache.head.next;
  100034:	a1 54 95 10 00       	mov    0x109554,%eax
  100039:	89 43 10             	mov    %eax,0x10(%ebx)
  b->prev = &bcache.head;
  bcache.head.next->prev = b;
  10003c:	a1 54 95 10 00       	mov    0x109554,%eax
  bcache.head.next = b;
  100041:	89 1d 54 95 10 00    	mov    %ebx,0x109554

  b->next->prev = b->prev;
  b->prev->next = b->next;
  b->next = bcache.head.next;
  b->prev = &bcache.head;
  bcache.head.next->prev = b;
  100047:	89 58 0c             	mov    %ebx,0xc(%eax)
  bcache.head.next = b;

  b->flags &= ~B_BUSY;
  wakeup(b);
  10004a:	89 1c 24             	mov    %ebx,(%esp)
  10004d:	e8 7e 31 00 00       	call   1031d0 <wakeup>

  release(&bcache.lock);
  100052:	c7 45 08 20 80 10 00 	movl   $0x108020,0x8(%ebp)
}
  100059:	83 c4 04             	add    $0x4,%esp
  10005c:	5b                   	pop    %ebx
  10005d:	5d                   	pop    %ebp
  bcache.head.next = b;

  b->flags &= ~B_BUSY;
  wakeup(b);

  release(&bcache.lock);
  10005e:	e9 fd 3d 00 00       	jmp    103e60 <release>
// Release the buffer b.
void
brelse(struct buf *b)
{
  if((b->flags & B_BUSY) == 0)
    panic("brelse");
  100063:	c7 04 24 60 5f 10 00 	movl   $0x105f60,(%esp)
  10006a:	e8 11 08 00 00       	call   100880 <panic>
  10006f:	90                   	nop    

00100070 <bwrite>:
}

// Write b's contents to disk.  Must be locked.
void
bwrite(struct buf *b, char* caller)
{
  100070:	55                   	push   %ebp
  100071:	89 e5                	mov    %esp,%ebp
  100073:	53                   	push   %ebx
  100074:	83 ec 14             	sub    $0x14,%esp
  100077:	8b 5d 08             	mov    0x8(%ebp),%ebx
  cprintf("%s : bwrite sector %d\n", caller, b->sector);
  10007a:	8b 43 08             	mov    0x8(%ebx),%eax
  10007d:	89 44 24 08          	mov    %eax,0x8(%esp)
  100081:	8b 45 0c             	mov    0xc(%ebp),%eax
  100084:	c7 04 24 67 5f 10 00 	movl   $0x105f67,(%esp)
  10008b:	89 44 24 04          	mov    %eax,0x4(%esp)
  10008f:	e8 0c 04 00 00       	call   1004a0 <cprintf>
  if((b->flags & B_BUSY) == 0)
  100094:	8b 03                	mov    (%ebx),%eax
  100096:	a8 01                	test   $0x1,%al
  100098:	74 12                	je     1000ac <bwrite+0x3c>
    panic("bwrite");
  b->flags |= B_DIRTY;
  10009a:	83 c8 04             	or     $0x4,%eax
  10009d:	89 03                	mov    %eax,(%ebx)
  iderw(b);
  10009f:	89 5d 08             	mov    %ebx,0x8(%ebp)
}
  1000a2:	83 c4 14             	add    $0x14,%esp
  1000a5:	5b                   	pop    %ebx
  1000a6:	5d                   	pop    %ebp
{
  cprintf("%s : bwrite sector %d\n", caller, b->sector);
  if((b->flags & B_BUSY) == 0)
    panic("bwrite");
  b->flags |= B_DIRTY;
  iderw(b);
  1000a7:	e9 e4 1e 00 00       	jmp    101f90 <iderw>
void
bwrite(struct buf *b, char* caller)
{
  cprintf("%s : bwrite sector %d\n", caller, b->sector);
  if((b->flags & B_BUSY) == 0)
    panic("bwrite");
  1000ac:	c7 04 24 7e 5f 10 00 	movl   $0x105f7e,(%esp)
  1000b3:	e8 c8 07 00 00       	call   100880 <panic>
  1000b8:	90                   	nop    
  1000b9:	8d b4 26 00 00 00 00 	lea    0x0(%esi,%eiz,1),%esi

001000c0 <bread>:
}

// Return a B_BUSY buf with the contents of the indicated disk sector.
struct buf*
bread(uint dev, uint sector)
{
  1000c0:	55                   	push   %ebp
  1000c1:	89 e5                	mov    %esp,%ebp
  1000c3:	57                   	push   %edi
  1000c4:	56                   	push   %esi
  1000c5:	53                   	push   %ebx
  1000c6:	83 ec 0c             	sub    $0xc,%esp
  1000c9:	8b 75 08             	mov    0x8(%ebp),%esi
  1000cc:	8b 7d 0c             	mov    0xc(%ebp),%edi
static struct buf*
bget(uint dev, uint sector)
{
  struct buf *b;

  acquire(&bcache.lock);
  1000cf:	c7 04 24 20 80 10 00 	movl   $0x108020,(%esp)
  1000d6:	e8 d5 3d 00 00       	call   103eb0 <acquire>

 loop:
  // Try for cached block.
  for(b = bcache.head.next; b != &bcache.head; b = b->next){
  1000db:	8b 1d 54 95 10 00    	mov    0x109554,%ebx
  1000e1:	81 fb 44 95 10 00    	cmp    $0x109544,%ebx
  1000e7:	75 12                	jne    1000fb <bread+0x3b>
  1000e9:	eb 3d                	jmp    100128 <bread+0x68>
  1000eb:	90                   	nop    
  1000ec:	8d 74 26 00          	lea    0x0(%esi,%eiz,1),%esi
  1000f0:	8b 5b 10             	mov    0x10(%ebx),%ebx
  1000f3:	81 fb 44 95 10 00    	cmp    $0x109544,%ebx
  1000f9:	74 2d                	je     100128 <bread+0x68>
    if(b->dev == dev && b->sector == sector){
  1000fb:	3b 73 04             	cmp    0x4(%ebx),%esi
  1000fe:	66 90                	xchg   %ax,%ax
  100100:	75 ee                	jne    1000f0 <bread+0x30>
  100102:	3b 7b 08             	cmp    0x8(%ebx),%edi
  100105:	75 e9                	jne    1000f0 <bread+0x30>
      if(!(b->flags & B_BUSY)){
  100107:	8b 03                	mov    (%ebx),%eax
  100109:	a8 01                	test   $0x1,%al
  10010b:	90                   	nop    
  10010c:	8d 74 26 00          	lea    0x0(%esi,%eiz,1),%esi
  100110:	74 75                	je     100187 <bread+0xc7>
        b->flags |= B_BUSY;
        release(&bcache.lock);
        return b;
      }
      sleep(b, &bcache.lock);
  100112:	c7 44 24 04 20 80 10 	movl   $0x108020,0x4(%esp)
  100119:	00 
  10011a:	89 1c 24             	mov    %ebx,(%esp)
  10011d:	e8 fe 32 00 00       	call   103420 <sleep>
  100122:	eb b7                	jmp    1000db <bread+0x1b>
  100124:	8d 74 26 00          	lea    0x0(%esi,%eiz,1),%esi
      goto loop;
    }
  }

  // Allocate fresh block.
  for(b = bcache.head.prev; b != &bcache.head; b = b->prev){
  100128:	a1 50 95 10 00       	mov    0x109550,%eax
  10012d:	3d 44 95 10 00       	cmp    $0x109544,%eax
  100132:	75 0e                	jne    100142 <bread+0x82>
  100134:	eb 45                	jmp    10017b <bread+0xbb>
  100136:	66 90                	xchg   %ax,%ax
  100138:	8b 40 0c             	mov    0xc(%eax),%eax
  10013b:	3d 44 95 10 00       	cmp    $0x109544,%eax
  100140:	74 39                	je     10017b <bread+0xbb>
    if((b->flags & B_BUSY) == 0){
  100142:	f6 00 01             	testb  $0x1,(%eax)
  100145:	8d 76 00             	lea    0x0(%esi),%esi
  100148:	75 ee                	jne    100138 <bread+0x78>
      b->dev = dev;
  10014a:	89 70 04             	mov    %esi,0x4(%eax)
    }
  }

  // Allocate fresh block.
  for(b = bcache.head.prev; b != &bcache.head; b = b->prev){
    if((b->flags & B_BUSY) == 0){
  10014d:	89 c3                	mov    %eax,%ebx
      b->dev = dev;
      b->sector = sector;
  10014f:	89 78 08             	mov    %edi,0x8(%eax)
      b->flags = B_BUSY;
  100152:	c7 00 01 00 00 00    	movl   $0x1,(%eax)
      release(&bcache.lock);
  100158:	c7 04 24 20 80 10 00 	movl   $0x108020,(%esp)
  10015f:	e8 fc 3c 00 00       	call   103e60 <release>
bread(uint dev, uint sector)
{
  struct buf *b;

  b = bget(dev, sector);
  if(!(b->flags & B_VALID))
  100164:	f6 03 02             	testb  $0x2,(%ebx)
  100167:	75 08                	jne    100171 <bread+0xb1>
    iderw(b);
  100169:	89 1c 24             	mov    %ebx,(%esp)
  10016c:	e8 1f 1e 00 00       	call   101f90 <iderw>
  return b;
}
  100171:	83 c4 0c             	add    $0xc,%esp
  100174:	89 d8                	mov    %ebx,%eax
  100176:	5b                   	pop    %ebx
  100177:	5e                   	pop    %esi
  100178:	5f                   	pop    %edi
  100179:	5d                   	pop    %ebp
  10017a:	c3                   	ret    
      b->flags = B_BUSY;
      release(&bcache.lock);
      return b;
    }
  }
  panic("bget: no buffers");
  10017b:	c7 04 24 85 5f 10 00 	movl   $0x105f85,(%esp)
  100182:	e8 f9 06 00 00       	call   100880 <panic>
 loop:
  // Try for cached block.
  for(b = bcache.head.next; b != &bcache.head; b = b->next){
    if(b->dev == dev && b->sector == sector){
      if(!(b->flags & B_BUSY)){
        b->flags |= B_BUSY;
  100187:	83 c8 01             	or     $0x1,%eax
  10018a:	89 03                	mov    %eax,(%ebx)
        release(&bcache.lock);
  10018c:	c7 04 24 20 80 10 00 	movl   $0x108020,(%esp)
  100193:	e8 c8 3c 00 00       	call   103e60 <release>
  100198:	eb ca                	jmp    100164 <bread+0xa4>
  10019a:	8d b6 00 00 00 00    	lea    0x0(%esi),%esi

001001a0 <binit>:
  struct buf head;
} bcache;

void
binit(void)
{
  1001a0:	55                   	push   %ebp
  1001a1:	89 e5                	mov    %esp,%ebp
  1001a3:	83 ec 08             	sub    $0x8,%esp
  struct buf *b;

  initlock(&bcache.lock, "bcache");
  1001a6:	c7 44 24 04 96 5f 10 	movl   $0x105f96,0x4(%esp)
  1001ad:	00 
  1001ae:	c7 04 24 20 80 10 00 	movl   $0x108020,(%esp)
  1001b5:	e8 66 3b 00 00       	call   103d20 <initlock>

  // Create linked list of buffers
  bcache.head.prev = &bcache.head;
  bcache.head.next = &bcache.head;
  1001ba:	ba 54 80 10 00       	mov    $0x108054,%edx
  struct buf *b;

  initlock(&bcache.lock, "bcache");

  // Create linked list of buffers
  bcache.head.prev = &bcache.head;
  1001bf:	c7 05 50 95 10 00 44 	movl   $0x109544,0x109550
  1001c6:	95 10 00 
  bcache.head.next = &bcache.head;
  1001c9:	c7 05 54 95 10 00 44 	movl   $0x109544,0x109554
  1001d0:	95 10 00 
  1001d3:	90                   	nop    
  1001d4:	8d 74 26 00          	lea    0x0(%esi,%eiz,1),%esi
  for(b = bcache.buf; b < bcache.buf+NBUF; b++){
    b->next = bcache.head.next;
  1001d8:	a1 54 95 10 00       	mov    0x109554,%eax
    b->prev = &bcache.head;
  1001dd:	c7 42 0c 44 95 10 00 	movl   $0x109544,0xc(%edx)
    b->dev = -1;
  1001e4:	c7 42 04 ff ff ff ff 	movl   $0xffffffff,0x4(%edx)

  // Create linked list of buffers
  bcache.head.prev = &bcache.head;
  bcache.head.next = &bcache.head;
  for(b = bcache.buf; b < bcache.buf+NBUF; b++){
    b->next = bcache.head.next;
  1001eb:	89 42 10             	mov    %eax,0x10(%edx)
    b->prev = &bcache.head;
    b->dev = -1;
    bcache.head.next->prev = b;
  1001ee:	a1 54 95 10 00       	mov    0x109554,%eax
    bcache.head.next = b;
  1001f3:	89 15 54 95 10 00    	mov    %edx,0x109554
  bcache.head.next = &bcache.head;
  for(b = bcache.buf; b < bcache.buf+NBUF; b++){
    b->next = bcache.head.next;
    b->prev = &bcache.head;
    b->dev = -1;
    bcache.head.next->prev = b;
  1001f9:	89 50 0c             	mov    %edx,0xc(%eax)
  initlock(&bcache.lock, "bcache");

  // Create linked list of buffers
  bcache.head.prev = &bcache.head;
  bcache.head.next = &bcache.head;
  for(b = bcache.buf; b < bcache.buf+NBUF; b++){
  1001fc:	81 c2 18 02 00 00    	add    $0x218,%edx
  100202:	81 fa 44 95 10 00    	cmp    $0x109544,%edx
  100208:	75 ce                	jne    1001d8 <binit+0x38>
    b->prev = &bcache.head;
    b->dev = -1;
    bcache.head.next->prev = b;
    bcache.head.next = b;
  }
}
  10020a:	c9                   	leave  
  10020b:	c3                   	ret    
  10020c:	90                   	nop    
  10020d:	90                   	nop    
  10020e:	90                   	nop    
  10020f:	90                   	nop    

00100210 <consoleinit>:
  return n;
}

void
consoleinit(void)
{
  100210:	55                   	push   %ebp
  100211:	89 e5                	mov    %esp,%ebp
  100213:	83 ec 08             	sub    $0x8,%esp
  initlock(&cons.lock, "console");
  100216:	c7 44 24 04 9d 5f 10 	movl   $0x105f9d,0x4(%esp)
  10021d:	00 
  10021e:	c7 04 24 80 7f 10 00 	movl   $0x107f80,(%esp)
  100225:	e8 f6 3a 00 00       	call   103d20 <initlock>
  initlock(&input.lock, "input");
  10022a:	c7 44 24 04 a5 5f 10 	movl   $0x105fa5,0x4(%esp)
  100231:	00 
  100232:	c7 04 24 60 97 10 00 	movl   $0x109760,(%esp)
  100239:	e8 e2 3a 00 00       	call   103d20 <initlock>

  devsw[CONSOLE].write = consolewrite;
  devsw[CONSOLE].read = consoleread;
  cons.locking = 1;

  picenable(IRQ_KBD);
  10023e:	c7 04 24 01 00 00 00 	movl   $0x1,(%esp)
consoleinit(void)
{
  initlock(&cons.lock, "console");
  initlock(&input.lock, "input");

  devsw[CONSOLE].write = consolewrite;
  100245:	c7 05 cc a1 10 00 b0 	movl   $0x1003b0,0x10a1cc
  10024c:	03 10 00 
  devsw[CONSOLE].read = consoleread;
  10024f:	c7 05 c8 a1 10 00 10 	movl   $0x100610,0x10a1c8
  100256:	06 10 00 
  cons.locking = 1;
  100259:	c7 05 b4 7f 10 00 01 	movl   $0x1,0x107fb4
  100260:	00 00 00 

  picenable(IRQ_KBD);
  100263:	e8 68 2a 00 00       	call   102cd0 <picenable>
  ioapicenable(IRQ_KBD, 0);
  100268:	c7 44 24 04 00 00 00 	movl   $0x0,0x4(%esp)
  10026f:	00 
  100270:	c7 04 24 01 00 00 00 	movl   $0x1,(%esp)
  100277:	e8 44 1f 00 00       	call   1021c0 <ioapicenable>
}
  10027c:	c9                   	leave  
  10027d:	c3                   	ret    
  10027e:	66 90                	xchg   %ax,%ax

00100280 <consputc>:
  crt[pos] = ' ' | 0x0700;
}

void
consputc(int c)
{
  100280:	55                   	push   %ebp
  100281:	89 e5                	mov    %esp,%ebp
  100283:	57                   	push   %edi
  100284:	56                   	push   %esi
  100285:	89 c6                	mov    %eax,%esi
  100287:	53                   	push   %ebx
  100288:	83 ec 0c             	sub    $0xc,%esp
  if(panicked){
  10028b:	a1 60 7f 10 00       	mov    0x107f60,%eax
  100290:	85 c0                	test   %eax,%eax
  100292:	74 03                	je     100297 <consputc+0x17>
}

static inline void
cli(void)
{
  asm volatile("cli");
  100294:	fa                   	cli    
  100295:	eb fe                	jmp    100295 <consputc+0x15>
    cli();
    for(;;)
      ;
  }

  uartputc(c);
  100297:	89 34 24             	mov    %esi,(%esp)
  10029a:	e8 31 51 00 00       	call   1053d0 <uartputc>
}

static inline void
outb(ushort port, uchar data)
{
  asm volatile("out %0,%1" : : "a" (data), "d" (port));
  10029f:	b9 d4 03 00 00       	mov    $0x3d4,%ecx
  1002a4:	b8 0e 00 00 00       	mov    $0xe,%eax
  1002a9:	89 ca                	mov    %ecx,%edx
  1002ab:	ee                   	out    %al,(%dx)
static inline uchar
inb(ushort port)
{
  uchar data;

  asm volatile("in %1,%0" : "=a" (data) : "d" (port));
  1002ac:	bf d5 03 00 00       	mov    $0x3d5,%edi
  1002b1:	89 fa                	mov    %edi,%edx
  1002b3:	ec                   	in     (%dx),%al
{
  int pos;
  
  // Cursor position: col + 80*row.
  outb(CRTPORT, 14);
  pos = inb(CRTPORT+1) << 8;
  1002b4:	0f b6 d8             	movzbl %al,%ebx
}

static inline void
outb(ushort port, uchar data)
{
  asm volatile("out %0,%1" : : "a" (data), "d" (port));
  1002b7:	89 ca                	mov    %ecx,%edx
  1002b9:	c1 e3 08             	shl    $0x8,%ebx
  1002bc:	b8 0f 00 00 00       	mov    $0xf,%eax
  1002c1:	ee                   	out    %al,(%dx)
static inline uchar
inb(ushort port)
{
  uchar data;

  asm volatile("in %1,%0" : "=a" (data) : "d" (port));
  1002c2:	89 fa                	mov    %edi,%edx
  1002c4:	ec                   	in     (%dx),%al
  outb(CRTPORT, 15);
  pos |= inb(CRTPORT+1);
  1002c5:	0f b6 c0             	movzbl %al,%eax
  1002c8:	09 c3                	or     %eax,%ebx

  if(c == '\n')
  1002ca:	83 fe 0a             	cmp    $0xa,%esi
  1002cd:	74 63                	je     100332 <consputc+0xb2>
    pos += 80 - pos%80;
  else if(c == BACKSPACE){
  1002cf:	81 fe 00 01 00 00    	cmp    $0x100,%esi
  1002d5:	0f 84 b8 00 00 00    	je     100393 <consputc+0x113>
    if(pos > 0)
      crt[--pos] = ' ' | 0x0700;
  } else
    crt[pos++] = (c&0xff) | 0x0700;  // black on white
  1002db:	89 f0                	mov    %esi,%eax
  1002dd:	66 25 ff 00          	and    $0xff,%ax
  1002e1:	80 cc 07             	or     $0x7,%ah
  1002e4:	66 89 84 1b 00 80 0b 	mov    %ax,0xb8000(%ebx,%ebx,1)
  1002eb:	00 
  1002ec:	83 c3 01             	add    $0x1,%ebx
  
  if((pos/80) >= 24){  // Scroll up.
  1002ef:	81 fb 7f 07 00 00    	cmp    $0x77f,%ebx
  1002f5:	7f 52                	jg     100349 <consputc+0xc9>
  1002f7:	8d 34 1b             	lea    (%ebx,%ebx,1),%esi
}

static inline void
outb(ushort port, uchar data)
{
  asm volatile("out %0,%1" : : "a" (data), "d" (port));
  1002fa:	b9 d4 03 00 00       	mov    $0x3d4,%ecx
  1002ff:	b8 0e 00 00 00       	mov    $0xe,%eax
  100304:	89 ca                	mov    %ecx,%edx
  100306:	ee                   	out    %al,(%dx)
  
  outb(CRTPORT, 14);
  outb(CRTPORT+1, pos>>8);
  outb(CRTPORT, 15);
  outb(CRTPORT+1, pos);
  crt[pos] = ' ' | 0x0700;
  100307:	bf d5 03 00 00       	mov    $0x3d5,%edi
  10030c:	89 d8                	mov    %ebx,%eax
  10030e:	c1 f8 08             	sar    $0x8,%eax
  100311:	89 fa                	mov    %edi,%edx
  100313:	ee                   	out    %al,(%dx)
  100314:	b8 0f 00 00 00       	mov    $0xf,%eax
  100319:	89 ca                	mov    %ecx,%edx
  10031b:	ee                   	out    %al,(%dx)
  10031c:	89 d8                	mov    %ebx,%eax
  10031e:	89 fa                	mov    %edi,%edx
  100320:	ee                   	out    %al,(%dx)
  100321:	66 c7 86 00 80 0b 00 	movw   $0x720,0xb8000(%esi)
  100328:	20 07 
      ;
  }

  uartputc(c);
  cgaputc(c);
}
  10032a:	83 c4 0c             	add    $0xc,%esp
  10032d:	5b                   	pop    %ebx
  10032e:	5e                   	pop    %esi
  10032f:	5f                   	pop    %edi
  100330:	5d                   	pop    %ebp
  100331:	c3                   	ret    
  pos = inb(CRTPORT+1) << 8;
  outb(CRTPORT, 15);
  pos |= inb(CRTPORT+1);

  if(c == '\n')
    pos += 80 - pos%80;
  100332:	89 d8                	mov    %ebx,%eax
  100334:	ba 67 66 66 66       	mov    $0x66666667,%edx
  100339:	f7 ea                	imul   %edx
  10033b:	c1 ea 05             	shr    $0x5,%edx
  10033e:	8d 14 92             	lea    (%edx,%edx,4),%edx
  100341:	c1 e2 04             	shl    $0x4,%edx
  100344:	8d 5a 50             	lea    0x50(%edx),%ebx
  100347:	eb a6                	jmp    1002ef <consputc+0x6f>
  } else
    crt[pos++] = (c&0xff) | 0x0700;  // black on white
  
  if((pos/80) >= 24){  // Scroll up.
    memmove(crt, crt+80, sizeof(crt[0])*23*80);
    pos -= 80;
  100349:	83 eb 50             	sub    $0x50,%ebx
      crt[--pos] = ' ' | 0x0700;
  } else
    crt[pos++] = (c&0xff) | 0x0700;  // black on white
  
  if((pos/80) >= 24){  // Scroll up.
    memmove(crt, crt+80, sizeof(crt[0])*23*80);
  10034c:	c7 44 24 08 60 0e 00 	movl   $0xe60,0x8(%esp)
  100353:	00 
    pos -= 80;
    memset(crt+pos, 0, sizeof(crt[0])*(24*80 - pos));
  100354:	8d 34 1b             	lea    (%ebx,%ebx,1),%esi
      crt[--pos] = ' ' | 0x0700;
  } else
    crt[pos++] = (c&0xff) | 0x0700;  // black on white
  
  if((pos/80) >= 24){  // Scroll up.
    memmove(crt, crt+80, sizeof(crt[0])*23*80);
  100357:	c7 44 24 04 a0 80 0b 	movl   $0xb80a0,0x4(%esp)
  10035e:	00 
  10035f:	c7 04 24 00 80 0b 00 	movl   $0xb8000,(%esp)
  100366:	e8 75 3c 00 00       	call   103fe0 <memmove>
    pos -= 80;
    memset(crt+pos, 0, sizeof(crt[0])*(24*80 - pos));
  10036b:	b8 80 07 00 00       	mov    $0x780,%eax
  100370:	29 d8                	sub    %ebx,%eax
  100372:	01 c0                	add    %eax,%eax
  100374:	89 44 24 08          	mov    %eax,0x8(%esp)
  100378:	8d 86 00 80 0b 00    	lea    0xb8000(%esi),%eax
  10037e:	c7 44 24 04 00 00 00 	movl   $0x0,0x4(%esp)
  100385:	00 
  100386:	89 04 24             	mov    %eax,(%esp)
  100389:	e8 c2 3b 00 00       	call   103f50 <memset>
  10038e:	e9 67 ff ff ff       	jmp    1002fa <consputc+0x7a>
  pos |= inb(CRTPORT+1);

  if(c == '\n')
    pos += 80 - pos%80;
  else if(c == BACKSPACE){
    if(pos > 0)
  100393:	85 db                	test   %ebx,%ebx
  100395:	0f 8e 5c ff ff ff    	jle    1002f7 <consputc+0x77>
      crt[--pos] = ' ' | 0x0700;
  10039b:	83 eb 01             	sub    $0x1,%ebx
  10039e:	66 c7 84 1b 00 80 0b 	movw   $0x720,0xb8000(%ebx,%ebx,1)
  1003a5:	00 20 07 
  1003a8:	e9 42 ff ff ff       	jmp    1002ef <consputc+0x6f>
  1003ad:	8d 76 00             	lea    0x0(%esi),%esi

001003b0 <consolewrite>:
  return target - n;
}

int
consolewrite(struct inode *ip, char *buf, int n)
{
  1003b0:	55                   	push   %ebp
  1003b1:	89 e5                	mov    %esp,%ebp
  1003b3:	57                   	push   %edi
  1003b4:	56                   	push   %esi
  1003b5:	53                   	push   %ebx
  1003b6:	83 ec 0c             	sub    $0xc,%esp
  int i;

  iunlock(ip);
  1003b9:	8b 45 08             	mov    0x8(%ebp),%eax
  return target - n;
}

int
consolewrite(struct inode *ip, char *buf, int n)
{
  1003bc:	8b 75 10             	mov    0x10(%ebp),%esi
  1003bf:	8b 7d 0c             	mov    0xc(%ebp),%edi
  int i;

  iunlock(ip);
  1003c2:	89 04 24             	mov    %eax,(%esp)
  1003c5:	e8 96 13 00 00       	call   101760 <iunlock>
  acquire(&cons.lock);
  1003ca:	c7 04 24 80 7f 10 00 	movl   $0x107f80,(%esp)
  1003d1:	e8 da 3a 00 00       	call   103eb0 <acquire>
  for(i = 0; i < n; i++)
  1003d6:	85 f6                	test   %esi,%esi
  1003d8:	7e 16                	jle    1003f0 <consolewrite+0x40>
  1003da:	31 db                	xor    %ebx,%ebx
  1003dc:	8d 74 26 00          	lea    0x0(%esi,%eiz,1),%esi
    consputc(buf[i] & 0xff);
  1003e0:	0f b6 04 1f          	movzbl (%edi,%ebx,1),%eax
{
  int i;

  iunlock(ip);
  acquire(&cons.lock);
  for(i = 0; i < n; i++)
  1003e4:	83 c3 01             	add    $0x1,%ebx
    consputc(buf[i] & 0xff);
  1003e7:	e8 94 fe ff ff       	call   100280 <consputc>
{
  int i;

  iunlock(ip);
  acquire(&cons.lock);
  for(i = 0; i < n; i++)
  1003ec:	39 de                	cmp    %ebx,%esi
  1003ee:	7f f0                	jg     1003e0 <consolewrite+0x30>
    consputc(buf[i] & 0xff);
  release(&cons.lock);
  1003f0:	c7 04 24 80 7f 10 00 	movl   $0x107f80,(%esp)
  1003f7:	e8 64 3a 00 00       	call   103e60 <release>
  ilock(ip);
  1003fc:	8b 45 08             	mov    0x8(%ebp),%eax
  1003ff:	89 04 24             	mov    %eax,(%esp)
  100402:	e8 e9 17 00 00       	call   101bf0 <ilock>

  return n;
}
  100407:	83 c4 0c             	add    $0xc,%esp
  10040a:	89 f0                	mov    %esi,%eax
  10040c:	5b                   	pop    %ebx
  10040d:	5e                   	pop    %esi
  10040e:	5f                   	pop    %edi
  10040f:	5d                   	pop    %ebp
  100410:	c3                   	ret    
  100411:	eb 0d                	jmp    100420 <printint>
  100413:	90                   	nop    
  100414:	90                   	nop    
  100415:	90                   	nop    
  100416:	90                   	nop    
  100417:	90                   	nop    
  100418:	90                   	nop    
  100419:	90                   	nop    
  10041a:	90                   	nop    
  10041b:	90                   	nop    
  10041c:	90                   	nop    
  10041d:	90                   	nop    
  10041e:	90                   	nop    
  10041f:	90                   	nop    

00100420 <printint>:
	int locking;
} cons;

static void
printint(int xx, int base, int sgn)
{
  100420:	55                   	push   %ebp
  100421:	89 e5                	mov    %esp,%ebp
  100423:	57                   	push   %edi
  100424:	56                   	push   %esi
  100425:	89 d6                	mov    %edx,%esi
  100427:	53                   	push   %ebx
  100428:	83 ec 1c             	sub    $0x1c,%esp
  static char digits[] = "0123456789abcdef";
  char buf[16];
  int i = 0, neg = 0;
  uint x;

  if(sgn && xx < 0){
  10042b:	85 c9                	test   %ecx,%ecx
  10042d:	74 04                	je     100433 <printint+0x13>
  10042f:	85 c0                	test   %eax,%eax
  100431:	78 58                	js     10048b <printint+0x6b>
    neg = 1;
    x = -xx;
  } else
    x = xx;
  100433:	c7 45 e0 00 00 00 00 	movl   $0x0,-0x20(%ebp)
  10043a:	31 db                	xor    %ebx,%ebx
  10043c:	8d 7d e4             	lea    -0x1c(%ebp),%edi
  10043f:	90                   	nop    

  do{
    buf[i++] = digits[x % base];
  100440:	31 d2                	xor    %edx,%edx
  100442:	f7 f6                	div    %esi
  100444:	89 c1                	mov    %eax,%ecx
  100446:	0f b6 82 c5 5f 10 00 	movzbl 0x105fc5(%edx),%eax
  10044d:	88 04 1f             	mov    %al,(%edi,%ebx,1)
  100450:	83 c3 01             	add    $0x1,%ebx
  }while((x /= base) != 0);
  100453:	85 c9                	test   %ecx,%ecx
  100455:	89 c8                	mov    %ecx,%eax
  100457:	75 e7                	jne    100440 <printint+0x20>
  if(neg)
  100459:	8b 55 e0             	mov    -0x20(%ebp),%edx
  10045c:	85 d2                	test   %edx,%edx
  10045e:	74 08                	je     100468 <printint+0x48>
    buf[i++] = '-';
  100460:	c6 44 1d e4 2d       	movb   $0x2d,-0x1c(%ebp,%ebx,1)
  100465:	83 c3 01             	add    $0x1,%ebx

  while(--i >= 0)
  100468:	8d 73 ff             	lea    -0x1(%ebx),%esi
  10046b:	8d 1c 37             	lea    (%edi,%esi,1),%ebx
  10046e:	66 90                	xchg   %ax,%ax
    consputc(buf[i]);
  100470:	0f be 03             	movsbl (%ebx),%eax
    buf[i++] = digits[x % base];
  }while((x /= base) != 0);
  if(neg)
    buf[i++] = '-';

  while(--i >= 0)
  100473:	83 ee 01             	sub    $0x1,%esi
  100476:	83 eb 01             	sub    $0x1,%ebx
    consputc(buf[i]);
  100479:	e8 02 fe ff ff       	call   100280 <consputc>
    buf[i++] = digits[x % base];
  }while((x /= base) != 0);
  if(neg)
    buf[i++] = '-';

  while(--i >= 0)
  10047e:	83 fe ff             	cmp    $0xffffffff,%esi
  100481:	75 ed                	jne    100470 <printint+0x50>
    consputc(buf[i]);
}
  100483:	83 c4 1c             	add    $0x1c,%esp
  100486:	5b                   	pop    %ebx
  100487:	5e                   	pop    %esi
  100488:	5f                   	pop    %edi
  100489:	5d                   	pop    %ebp
  10048a:	c3                   	ret    
  int i = 0, neg = 0;
  uint x;

  if(sgn && xx < 0){
    neg = 1;
    x = -xx;
  10048b:	f7 d8                	neg    %eax
  10048d:	c7 45 e0 01 00 00 00 	movl   $0x1,-0x20(%ebp)
  100494:	eb a4                	jmp    10043a <printint+0x1a>
  100496:	8d 76 00             	lea    0x0(%esi),%esi
  100499:	8d bc 27 00 00 00 00 	lea    0x0(%edi,%eiz,1),%edi

001004a0 <cprintf>:
}

// Print to the console. only understands %d, %x, %p, %s.
void
cprintf(char *fmt, ...)
{
  1004a0:	55                   	push   %ebp
  1004a1:	89 e5                	mov    %esp,%ebp
  1004a3:	57                   	push   %edi
  1004a4:	56                   	push   %esi
  1004a5:	53                   	push   %ebx
  1004a6:	83 ec 0c             	sub    $0xc,%esp
  int i, c, state, locking;
  uint *argp;
  char *s;

  locking = cons.locking;
  1004a9:	a1 b4 7f 10 00       	mov    0x107fb4,%eax
  if(locking)
  1004ae:	85 c0                	test   %eax,%eax
{
  int i, c, state, locking;
  uint *argp;
  char *s;

  locking = cons.locking;
  1004b0:	89 45 f0             	mov    %eax,-0x10(%ebp)
  if(locking)
  1004b3:	0f 85 2f 01 00 00    	jne    1005e8 <cprintf+0x148>
    acquire(&cons.lock);

  argp = (uint*)(void*)(&fmt + 1);
  state = 0;
  for(i = 0; (c = fmt[i] & 0xff) != 0; i++){
  1004b9:	8b 55 08             	mov    0x8(%ebp),%edx
  1004bc:	0f b6 02             	movzbl (%edx),%eax
  1004bf:	85 c0                	test   %eax,%eax
  1004c1:	0f 84 99 00 00 00    	je     100560 <cprintf+0xc0>

  locking = cons.locking;
  if(locking)
    acquire(&cons.lock);

  argp = (uint*)(void*)(&fmt + 1);
  1004c7:	8d 7d 0c             	lea    0xc(%ebp),%edi
  1004ca:	31 f6                	xor    %esi,%esi
  1004cc:	eb 3d                	jmp    10050b <cprintf+0x6b>
  1004ce:	66 90                	xchg   %ax,%ax
      continue;
    }
    c = fmt[++i] & 0xff;
    if(c == 0)
      break;
    switch(c){
  1004d0:	83 fb 25             	cmp    $0x25,%ebx
  1004d3:	0f 84 c7 00 00 00    	je     1005a0 <cprintf+0x100>
  1004d9:	83 fb 64             	cmp    $0x64,%ebx
  1004dc:	8d 74 26 00          	lea    0x0(%esi,%eiz,1),%esi
  1004e0:	0f 84 9a 00 00 00    	je     100580 <cprintf+0xe0>
    case '%':
      consputc('%');
      break;
    default:
      // Print unknown % sequence to draw attention.
      consputc('%');
  1004e6:	b8 25 00 00 00       	mov    $0x25,%eax
  1004eb:	90                   	nop    
  1004ec:	8d 74 26 00          	lea    0x0(%esi,%eiz,1),%esi
  1004f0:	e8 8b fd ff ff       	call   100280 <consputc>
      consputc(c);
  1004f5:	89 d8                	mov    %ebx,%eax
  1004f7:	90                   	nop    
  1004f8:	e8 83 fd ff ff       	call   100280 <consputc>
  1004fd:	8b 55 08             	mov    0x8(%ebp),%edx
  if(locking)
    acquire(&cons.lock);

  argp = (uint*)(void*)(&fmt + 1);
  state = 0;
  for(i = 0; (c = fmt[i] & 0xff) != 0; i++){
  100500:	83 c6 01             	add    $0x1,%esi
  100503:	0f b6 04 32          	movzbl (%edx,%esi,1),%eax
  100507:	85 c0                	test   %eax,%eax
  100509:	74 55                	je     100560 <cprintf+0xc0>
    if(c != '%'){
  10050b:	83 f8 25             	cmp    $0x25,%eax
  10050e:	75 e8                	jne    1004f8 <cprintf+0x58>
      consputc(c);
      continue;
    }
    c = fmt[++i] & 0xff;
  100510:	83 c6 01             	add    $0x1,%esi
  100513:	0f b6 1c 32          	movzbl (%edx,%esi,1),%ebx
    if(c == 0)
  100517:	85 db                	test   %ebx,%ebx
  100519:	74 45                	je     100560 <cprintf+0xc0>
      break;
    switch(c){
  10051b:	83 fb 70             	cmp    $0x70,%ebx
  10051e:	74 1a                	je     10053a <cprintf+0x9a>
  100520:	7e ae                	jle    1004d0 <cprintf+0x30>
  100522:	83 fb 73             	cmp    $0x73,%ebx
  100525:	8d 76 00             	lea    0x0(%esi),%esi
  100528:	0f 84 8a 00 00 00    	je     1005b8 <cprintf+0x118>
  10052e:	83 fb 78             	cmp    $0x78,%ebx
  100531:	8d b4 26 00 00 00 00 	lea    0x0(%esi,%eiz,1),%esi
  100538:	75 ac                	jne    1004e6 <cprintf+0x46>
    case 'd':
      printint(*argp++, 10, 1);
      break;
    case 'x':
    case 'p':
      printint(*argp++, 16, 0);
  10053a:	8b 07                	mov    (%edi),%eax
  10053c:	31 c9                	xor    %ecx,%ecx
  10053e:	ba 10 00 00 00       	mov    $0x10,%edx
  if(locking)
    acquire(&cons.lock);

  argp = (uint*)(void*)(&fmt + 1);
  state = 0;
  for(i = 0; (c = fmt[i] & 0xff) != 0; i++){
  100543:	83 c6 01             	add    $0x1,%esi
    case 'd':
      printint(*argp++, 10, 1);
      break;
    case 'x':
    case 'p':
      printint(*argp++, 16, 0);
  100546:	83 c7 04             	add    $0x4,%edi
  100549:	e8 d2 fe ff ff       	call   100420 <printint>
  10054e:	8b 55 08             	mov    0x8(%ebp),%edx
  if(locking)
    acquire(&cons.lock);

  argp = (uint*)(void*)(&fmt + 1);
  state = 0;
  for(i = 0; (c = fmt[i] & 0xff) != 0; i++){
  100551:	0f b6 04 32          	movzbl (%edx,%esi,1),%eax
  100555:	85 c0                	test   %eax,%eax
  100557:	75 b2                	jne    10050b <cprintf+0x6b>
  100559:	8d b4 26 00 00 00 00 	lea    0x0(%esi,%eiz,1),%esi
      consputc(c);
      break;
    }
  }

  if(locking)
  100560:	8b 4d f0             	mov    -0x10(%ebp),%ecx
  100563:	85 c9                	test   %ecx,%ecx
  100565:	74 0c                	je     100573 <cprintf+0xd3>
    release(&cons.lock);
  100567:	c7 04 24 80 7f 10 00 	movl   $0x107f80,(%esp)
  10056e:	e8 ed 38 00 00       	call   103e60 <release>
}
  100573:	83 c4 0c             	add    $0xc,%esp
  100576:	5b                   	pop    %ebx
  100577:	5e                   	pop    %esi
  100578:	5f                   	pop    %edi
  100579:	5d                   	pop    %ebp
  10057a:	c3                   	ret    
  10057b:	90                   	nop    
  10057c:	8d 74 26 00          	lea    0x0(%esi,%eiz,1),%esi
    c = fmt[++i] & 0xff;
    if(c == 0)
      break;
    switch(c){
    case 'd':
      printint(*argp++, 10, 1);
  100580:	8b 07                	mov    (%edi),%eax
  100582:	ba 0a 00 00 00       	mov    $0xa,%edx
  100587:	b9 01 00 00 00       	mov    $0x1,%ecx
  10058c:	83 c7 04             	add    $0x4,%edi
  10058f:	e8 8c fe ff ff       	call   100420 <printint>
  100594:	8b 55 08             	mov    0x8(%ebp),%edx
  100597:	e9 64 ff ff ff       	jmp    100500 <cprintf+0x60>
  10059c:	8d 74 26 00          	lea    0x0(%esi,%eiz,1),%esi
        s = "(null)";
      for(; *s; s++)
        consputc(*s);
      break;
    case '%':
      consputc('%');
  1005a0:	b8 25 00 00 00       	mov    $0x25,%eax
  1005a5:	e8 d6 fc ff ff       	call   100280 <consputc>
  1005aa:	8b 55 08             	mov    0x8(%ebp),%edx
  1005ad:	8d 76 00             	lea    0x0(%esi),%esi
  1005b0:	e9 4b ff ff ff       	jmp    100500 <cprintf+0x60>
  1005b5:	8d 76 00             	lea    0x0(%esi),%esi
    case 'x':
    case 'p':
      printint(*argp++, 16, 0);
      break;
    case 's':
      if((s = (char*)*argp++) == 0)
  1005b8:	8b 1f                	mov    (%edi),%ebx
  1005ba:	83 c7 04             	add    $0x4,%edi
  1005bd:	85 db                	test   %ebx,%ebx
  1005bf:	74 3f                	je     100600 <cprintf+0x160>
        s = "(null)";
      for(; *s; s++)
  1005c1:	0f b6 03             	movzbl (%ebx),%eax
  1005c4:	84 c0                	test   %al,%al
  1005c6:	0f 84 34 ff ff ff    	je     100500 <cprintf+0x60>
  1005cc:	8d 74 26 00          	lea    0x0(%esi,%eiz,1),%esi
        consputc(*s);
  1005d0:	0f be c0             	movsbl %al,%eax
      printint(*argp++, 16, 0);
      break;
    case 's':
      if((s = (char*)*argp++) == 0)
        s = "(null)";
      for(; *s; s++)
  1005d3:	83 c3 01             	add    $0x1,%ebx
        consputc(*s);
  1005d6:	e8 a5 fc ff ff       	call   100280 <consputc>
      printint(*argp++, 16, 0);
      break;
    case 's':
      if((s = (char*)*argp++) == 0)
        s = "(null)";
      for(; *s; s++)
  1005db:	0f b6 03             	movzbl (%ebx),%eax
  1005de:	84 c0                	test   %al,%al
  1005e0:	75 ee                	jne    1005d0 <cprintf+0x130>
  1005e2:	e9 16 ff ff ff       	jmp    1004fd <cprintf+0x5d>
  1005e7:	90                   	nop    
  uint *argp;
  char *s;

  locking = cons.locking;
  if(locking)
    acquire(&cons.lock);
  1005e8:	c7 04 24 80 7f 10 00 	movl   $0x107f80,(%esp)
  1005ef:	e8 bc 38 00 00       	call   103eb0 <acquire>
  1005f4:	8d 74 26 00          	lea    0x0(%esi,%eiz,1),%esi
  1005f8:	e9 bc fe ff ff       	jmp    1004b9 <cprintf+0x19>
  1005fd:	8d 76 00             	lea    0x0(%esi),%esi
    case 'x':
    case 'p':
      printint(*argp++, 16, 0);
      break;
    case 's':
      if((s = (char*)*argp++) == 0)
  100600:	bb ab 5f 10 00       	mov    $0x105fab,%ebx
  100605:	eb ba                	jmp    1005c1 <cprintf+0x121>
  100607:	89 f6                	mov    %esi,%esi
  100609:	8d bc 27 00 00 00 00 	lea    0x0(%edi,%eiz,1),%edi

00100610 <consoleread>:
  release(&input.lock);
}

int
consoleread(struct inode *ip, char *dst, int n)
{
  100610:	55                   	push   %ebp
  100611:	89 e5                	mov    %esp,%ebp
  100613:	57                   	push   %edi
  100614:	56                   	push   %esi
  100615:	53                   	push   %ebx
  100616:	83 ec 0c             	sub    $0xc,%esp
  100619:	8b 5d 10             	mov    0x10(%ebp),%ebx
  uint target;
  int c;

  iunlock(ip);
  10061c:	8b 45 08             	mov    0x8(%ebp),%eax
  release(&input.lock);
}

int
consoleread(struct inode *ip, char *dst, int n)
{
  10061f:	8b 7d 0c             	mov    0xc(%ebp),%edi
  uint target;
  int c;

  iunlock(ip);
  100622:	89 04 24             	mov    %eax,(%esp)
  100625:	e8 36 11 00 00       	call   101760 <iunlock>
  target = n;
  10062a:	89 5d f0             	mov    %ebx,-0x10(%ebp)
  acquire(&input.lock);
  10062d:	c7 04 24 60 97 10 00 	movl   $0x109760,(%esp)
  100634:	e8 77 38 00 00       	call   103eb0 <acquire>
  while(n > 0){
  100639:	85 db                	test   %ebx,%ebx
  10063b:	7f 2c                	jg     100669 <consoleread+0x59>
  10063d:	e9 bf 00 00 00       	jmp    100701 <consoleread+0xf1>
  100642:	8d b6 00 00 00 00    	lea    0x0(%esi),%esi
    while(input.r == input.w){
      if(proc->killed){
  100648:	65 a1 04 00 00 00    	mov    %gs:0x4,%eax
  10064e:	8b 70 24             	mov    0x24(%eax),%esi
  100651:	85 f6                	test   %esi,%esi
  100653:	75 53                	jne    1006a8 <consoleread+0x98>
        release(&input.lock);
        ilock(ip);
        return -1;
      }
      sleep(&input.r, &input.lock);
  100655:	c7 44 24 04 60 97 10 	movl   $0x109760,0x4(%esp)
  10065c:	00 
  10065d:	c7 04 24 14 98 10 00 	movl   $0x109814,(%esp)
  100664:	e8 b7 2d 00 00       	call   103420 <sleep>

  iunlock(ip);
  target = n;
  acquire(&input.lock);
  while(n > 0){
    while(input.r == input.w){
  100669:	8b 15 14 98 10 00    	mov    0x109814,%edx
  10066f:	3b 15 18 98 10 00    	cmp    0x109818,%edx
  100675:	74 d1                	je     100648 <consoleread+0x38>
        ilock(ip);
        return -1;
      }
      sleep(&input.r, &input.lock);
    }
    c = input.buf[input.r++ % INPUT_BUF];
  100677:	89 d0                	mov    %edx,%eax
  100679:	83 e0 7f             	and    $0x7f,%eax
  10067c:	0f b6 88 94 97 10 00 	movzbl 0x109794(%eax),%ecx
  100683:	8d 42 01             	lea    0x1(%edx),%eax
  100686:	a3 14 98 10 00       	mov    %eax,0x109814
  10068b:	0f be f1             	movsbl %cl,%esi
    if(c == C('D')){  // EOF
  10068e:	83 fe 04             	cmp    $0x4,%esi
  100691:	74 3b                	je     1006ce <consoleread+0xbe>
        input.r--;
      }
      break;
    }
    *dst++ = c;
    --n;
  100693:	83 eb 01             	sub    $0x1,%ebx
    if(c == '\n')
  100696:	83 fe 0a             	cmp    $0xa,%esi
        // caller gets a 0-byte result.
        input.r--;
      }
      break;
    }
    *dst++ = c;
  100699:	88 0f                	mov    %cl,(%edi)
    --n;
    if(c == '\n')
  10069b:	74 3c                	je     1006d9 <consoleread+0xc9>
  int c;

  iunlock(ip);
  target = n;
  acquire(&input.lock);
  while(n > 0){
  10069d:	85 db                	test   %ebx,%ebx
  10069f:	7e 38                	jle    1006d9 <consoleread+0xc9>
        // caller gets a 0-byte result.
        input.r--;
      }
      break;
    }
    *dst++ = c;
  1006a1:	83 c7 01             	add    $0x1,%edi
  1006a4:	eb c3                	jmp    100669 <consoleread+0x59>
  1006a6:	66 90                	xchg   %ax,%ax
  target = n;
  acquire(&input.lock);
  while(n > 0){
    while(input.r == input.w){
      if(proc->killed){
        release(&input.lock);
  1006a8:	c7 04 24 60 97 10 00 	movl   $0x109760,(%esp)
        ilock(ip);
  1006af:	bb ff ff ff ff       	mov    $0xffffffff,%ebx
  target = n;
  acquire(&input.lock);
  while(n > 0){
    while(input.r == input.w){
      if(proc->killed){
        release(&input.lock);
  1006b4:	e8 a7 37 00 00       	call   103e60 <release>
        ilock(ip);
  1006b9:	8b 45 08             	mov    0x8(%ebp),%eax
  1006bc:	89 04 24             	mov    %eax,(%esp)
  1006bf:	e8 2c 15 00 00       	call   101bf0 <ilock>
  }
  release(&input.lock);
  ilock(ip);

  return target - n;
}
  1006c4:	83 c4 0c             	add    $0xc,%esp
  1006c7:	89 d8                	mov    %ebx,%eax
  1006c9:	5b                   	pop    %ebx
  1006ca:	5e                   	pop    %esi
  1006cb:	5f                   	pop    %edi
  1006cc:	5d                   	pop    %ebp
  1006cd:	c3                   	ret    
      }
      sleep(&input.r, &input.lock);
    }
    c = input.buf[input.r++ % INPUT_BUF];
    if(c == C('D')){  // EOF
      if(n < target){
  1006ce:	39 5d f0             	cmp    %ebx,-0x10(%ebp)
  1006d1:	76 06                	jbe    1006d9 <consoleread+0xc9>
        // Save ^D for next time, to make sure
        // caller gets a 0-byte result.
        input.r--;
  1006d3:	89 15 14 98 10 00    	mov    %edx,0x109814
  1006d9:	8b 45 f0             	mov    -0x10(%ebp),%eax
  1006dc:	29 d8                	sub    %ebx,%eax
  1006de:	89 c3                	mov    %eax,%ebx
    *dst++ = c;
    --n;
    if(c == '\n')
      break;
  }
  release(&input.lock);
  1006e0:	c7 04 24 60 97 10 00 	movl   $0x109760,(%esp)
  1006e7:	e8 74 37 00 00       	call   103e60 <release>
  ilock(ip);
  1006ec:	8b 45 08             	mov    0x8(%ebp),%eax
  1006ef:	89 04 24             	mov    %eax,(%esp)
  1006f2:	e8 f9 14 00 00       	call   101bf0 <ilock>

  return target - n;
}
  1006f7:	83 c4 0c             	add    $0xc,%esp
  1006fa:	89 d8                	mov    %ebx,%eax
  1006fc:	5b                   	pop    %ebx
  1006fd:	5e                   	pop    %esi
  1006fe:	5f                   	pop    %edi
  1006ff:	5d                   	pop    %ebp
  100700:	c3                   	ret    
  iunlock(ip);
  target = n;
  acquire(&input.lock);
  while(n > 0){
    while(input.r == input.w){
      if(proc->killed){
  100701:	31 db                	xor    %ebx,%ebx
  100703:	eb db                	jmp    1006e0 <consoleread+0xd0>
  100705:	8d 74 26 00          	lea    0x0(%esi,%eiz,1),%esi
  100709:	8d bc 27 00 00 00 00 	lea    0x0(%edi,%eiz,1),%edi

00100710 <consoleintr>:

#define C(x)  ((x)-'@')  // Control-x

void
consoleintr(int (*getc)(void))
{
  100710:	55                   	push   %ebp
  100711:	89 e5                	mov    %esp,%ebp
  100713:	57                   	push   %edi
        consputc(BACKSPACE);
      }
      break;
    default:
      if(c != 0 && input.e-input.r < INPUT_BUF){
        input.buf[input.e++ % INPUT_BUF] = c;
  100714:	bf 90 97 10 00       	mov    $0x109790,%edi

#define C(x)  ((x)-'@')  // Control-x

void
consoleintr(int (*getc)(void))
{
  100719:	56                   	push   %esi
  10071a:	53                   	push   %ebx
  10071b:	83 ec 0c             	sub    $0xc,%esp
  10071e:	8b 75 08             	mov    0x8(%ebp),%esi
  int c;

  acquire(&input.lock);
  100721:	c7 04 24 60 97 10 00 	movl   $0x109760,(%esp)
  100728:	e8 83 37 00 00       	call   103eb0 <acquire>
  10072d:	8d 76 00             	lea    0x0(%esi),%esi
  while((c = getc()) >= 0){
  100730:	ff d6                	call   *%esi
  100732:	85 c0                	test   %eax,%eax
  100734:	89 c3                	mov    %eax,%ebx
  100736:	0f 88 a4 00 00 00    	js     1007e0 <consoleintr+0xd0>
    switch(c){
  10073c:	83 fb 10             	cmp    $0x10,%ebx
  10073f:	90                   	nop    
  100740:	0f 84 ea 00 00 00    	je     100830 <consoleintr+0x120>
  100746:	83 fb 15             	cmp    $0x15,%ebx
  100749:	8d b4 26 00 00 00 00 	lea    0x0(%esi,%eiz,1),%esi
  100750:	0f 84 c7 00 00 00    	je     10081d <consoleintr+0x10d>
  100756:	83 fb 08             	cmp    $0x8,%ebx
  100759:	8d b4 26 00 00 00 00 	lea    0x0(%esi,%eiz,1),%esi
  100760:	0f 84 da 00 00 00    	je     100840 <consoleintr+0x130>
        input.e--;
        consputc(BACKSPACE);
      }
      break;
    default:
      if(c != 0 && input.e-input.r < INPUT_BUF){
  100766:	85 db                	test   %ebx,%ebx
  100768:	74 c6                	je     100730 <consoleintr+0x20>
  10076a:	8b 15 1c 98 10 00    	mov    0x10981c,%edx
  100770:	89 d0                	mov    %edx,%eax
  100772:	2b 05 14 98 10 00    	sub    0x109814,%eax
  100778:	83 f8 7f             	cmp    $0x7f,%eax
  10077b:	77 b3                	ja     100730 <consoleintr+0x20>
        input.buf[input.e++ % INPUT_BUF] = c;
  10077d:	89 d0                	mov    %edx,%eax
  10077f:	83 e0 7f             	and    $0x7f,%eax
  100782:	88 5c 07 04          	mov    %bl,0x4(%edi,%eax,1)
  100786:	8d 42 01             	lea    0x1(%edx),%eax
  100789:	a3 1c 98 10 00       	mov    %eax,0x10981c
        consputc(c);
  10078e:	89 d8                	mov    %ebx,%eax
  100790:	e8 eb fa ff ff       	call   100280 <consputc>
        if(c == '\n' || c == C('D') || input.e == input.r+INPUT_BUF){
  100795:	83 fb 0a             	cmp    $0xa,%ebx
  100798:	0f 84 ca 00 00 00    	je     100868 <consoleintr+0x158>
  10079e:	83 fb 04             	cmp    $0x4,%ebx
  1007a1:	0f 84 c1 00 00 00    	je     100868 <consoleintr+0x158>
  1007a7:	a1 14 98 10 00       	mov    0x109814,%eax
  1007ac:	8b 15 1c 98 10 00    	mov    0x10981c,%edx
  1007b2:	83 e8 80             	sub    $0xffffff80,%eax
  1007b5:	39 c2                	cmp    %eax,%edx
  1007b7:	0f 85 73 ff ff ff    	jne    100730 <consoleintr+0x20>
          input.w = input.e;
  1007bd:	89 15 18 98 10 00    	mov    %edx,0x109818
          wakeup(&input.r);
  1007c3:	c7 04 24 14 98 10 00 	movl   $0x109814,(%esp)
  1007ca:	e8 01 2a 00 00       	call   1031d0 <wakeup>
consoleintr(int (*getc)(void))
{
  int c;

  acquire(&input.lock);
  while((c = getc()) >= 0){
  1007cf:	ff d6                	call   *%esi
  1007d1:	85 c0                	test   %eax,%eax
  1007d3:	89 c3                	mov    %eax,%ebx
  1007d5:	0f 89 61 ff ff ff    	jns    10073c <consoleintr+0x2c>
  1007db:	90                   	nop    
  1007dc:	8d 74 26 00          	lea    0x0(%esi,%eiz,1),%esi
        }
      }
      break;
    }
  }
  release(&input.lock);
  1007e0:	c7 45 08 60 97 10 00 	movl   $0x109760,0x8(%ebp)
}
  1007e7:	83 c4 0c             	add    $0xc,%esp
  1007ea:	5b                   	pop    %ebx
  1007eb:	5e                   	pop    %esi
  1007ec:	5f                   	pop    %edi
  1007ed:	5d                   	pop    %ebp
        }
      }
      break;
    }
  }
  release(&input.lock);
  1007ee:	e9 6d 36 00 00       	jmp    103e60 <release>
  1007f3:	90                   	nop    
  1007f4:	8d 74 26 00          	lea    0x0(%esi,%eiz,1),%esi
    switch(c){
    case C('P'):  // Process listing.
      procdump();
      break;
    case C('U'):  // Kill line.
      while(input.e != input.w &&
  1007f8:	8d 50 ff             	lea    -0x1(%eax),%edx
  1007fb:	89 d0                	mov    %edx,%eax
  1007fd:	83 e0 7f             	and    $0x7f,%eax
  100800:	80 b8 94 97 10 00 0a 	cmpb   $0xa,0x109794(%eax)
  100807:	0f 84 23 ff ff ff    	je     100730 <consoleintr+0x20>
            input.buf[(input.e-1) % INPUT_BUF] != '\n'){
        input.e--;
        consputc(BACKSPACE);
  10080d:	b8 00 01 00 00       	mov    $0x100,%eax
      procdump();
      break;
    case C('U'):  // Kill line.
      while(input.e != input.w &&
            input.buf[(input.e-1) % INPUT_BUF] != '\n'){
        input.e--;
  100812:	89 15 1c 98 10 00    	mov    %edx,0x10981c
        consputc(BACKSPACE);
  100818:	e8 63 fa ff ff       	call   100280 <consputc>
    switch(c){
    case C('P'):  // Process listing.
      procdump();
      break;
    case C('U'):  // Kill line.
      while(input.e != input.w &&
  10081d:	a1 1c 98 10 00       	mov    0x10981c,%eax
  100822:	3b 05 18 98 10 00    	cmp    0x109818,%eax
  100828:	75 ce                	jne    1007f8 <consoleintr+0xe8>
  10082a:	e9 01 ff ff ff       	jmp    100730 <consoleintr+0x20>
  10082f:	90                   	nop    

  acquire(&input.lock);
  while((c = getc()) >= 0){
    switch(c){
    case C('P'):  // Process listing.
      procdump();
  100830:	e8 fb 33 00 00       	call   103c30 <procdump>
  100835:	8d 76 00             	lea    0x0(%esi),%esi
  100838:	e9 f3 fe ff ff       	jmp    100730 <consoleintr+0x20>
  10083d:	8d 76 00             	lea    0x0(%esi),%esi
        input.e--;
        consputc(BACKSPACE);
      }
      break;
    case C('H'):  // Backspace
      if(input.e != input.w){
  100840:	a1 1c 98 10 00       	mov    0x10981c,%eax
  100845:	3b 05 18 98 10 00    	cmp    0x109818,%eax
  10084b:	0f 84 df fe ff ff    	je     100730 <consoleintr+0x20>
        input.e--;
  100851:	83 e8 01             	sub    $0x1,%eax
  100854:	a3 1c 98 10 00       	mov    %eax,0x10981c
        consputc(BACKSPACE);
  100859:	b8 00 01 00 00       	mov    $0x100,%eax
  10085e:	e8 1d fa ff ff       	call   100280 <consputc>
  100863:	e9 c8 fe ff ff       	jmp    100730 <consoleintr+0x20>
      break;
    default:
      if(c != 0 && input.e-input.r < INPUT_BUF){
        input.buf[input.e++ % INPUT_BUF] = c;
        consputc(c);
        if(c == '\n' || c == C('D') || input.e == input.r+INPUT_BUF){
  100868:	8b 15 1c 98 10 00    	mov    0x10981c,%edx
  10086e:	e9 4a ff ff ff       	jmp    1007bd <consoleintr+0xad>
  100873:	8d b6 00 00 00 00    	lea    0x0(%esi),%esi
  100879:	8d bc 27 00 00 00 00 	lea    0x0(%edi,%eiz,1),%edi

00100880 <panic>:
    release(&cons.lock);
}

void
panic(char *s)
{
  100880:	55                   	push   %ebp
  100881:	89 e5                	mov    %esp,%ebp
  100883:	53                   	push   %ebx
  100884:	83 ec 44             	sub    $0x44,%esp
}

static inline void
cli(void)
{
  asm volatile("cli");
  100887:	fa                   	cli    
  int i;
  uint pcs[10];
  
  cli();
  cons.locking = 0;
  cprintf("cpu%d: panic: ", cpu->id);
  100888:	65 a1 00 00 00 00    	mov    %gs:0x0,%eax
  cprintf(s);
  cprintf("\n");
  getcallerpcs(&s, pcs);
  10088e:	8d 5d d4             	lea    -0x2c(%ebp),%ebx
{
  int i;
  uint pcs[10];
  
  cli();
  cons.locking = 0;
  100891:	c7 05 b4 7f 10 00 00 	movl   $0x0,0x107fb4
  100898:	00 00 00 
  cprintf("cpu%d: panic: ", cpu->id);
  10089b:	0f b6 00             	movzbl (%eax),%eax
  10089e:	c7 04 24 b2 5f 10 00 	movl   $0x105fb2,(%esp)
  1008a5:	89 44 24 04          	mov    %eax,0x4(%esp)
  1008a9:	e8 f2 fb ff ff       	call   1004a0 <cprintf>
  cprintf(s);
  1008ae:	8b 45 08             	mov    0x8(%ebp),%eax
  1008b1:	89 04 24             	mov    %eax,(%esp)
  1008b4:	e8 e7 fb ff ff       	call   1004a0 <cprintf>
  cprintf("\n");
  1008b9:	c7 04 24 43 64 10 00 	movl   $0x106443,(%esp)
  1008c0:	e8 db fb ff ff       	call   1004a0 <cprintf>
  getcallerpcs(&s, pcs);
  1008c5:	8d 45 08             	lea    0x8(%ebp),%eax
  1008c8:	89 5c 24 04          	mov    %ebx,0x4(%esp)
  1008cc:	89 04 24             	mov    %eax,(%esp)
  1008cf:	e8 6c 34 00 00       	call   103d40 <getcallerpcs>
  1008d4:	8d 74 26 00          	lea    0x0(%esi,%eiz,1),%esi
  for(i=0; i<10; i++)
    cprintf(" %p", pcs[i]);
  1008d8:	8b 03                	mov    (%ebx),%eax
  1008da:	83 c3 04             	add    $0x4,%ebx
  1008dd:	c7 04 24 c1 5f 10 00 	movl   $0x105fc1,(%esp)
  1008e4:	89 44 24 04          	mov    %eax,0x4(%esp)
  1008e8:	e8 b3 fb ff ff       	call   1004a0 <cprintf>
  cons.locking = 0;
  cprintf("cpu%d: panic: ", cpu->id);
  cprintf(s);
  cprintf("\n");
  getcallerpcs(&s, pcs);
  for(i=0; i<10; i++)
  1008ed:	8d 45 fc             	lea    -0x4(%ebp),%eax
  1008f0:	39 c3                	cmp    %eax,%ebx
  1008f2:	75 e4                	jne    1008d8 <panic+0x58>
    cprintf(" %p", pcs[i]);
  panicked = 1; // freeze other CPU
  1008f4:	c7 05 60 7f 10 00 01 	movl   $0x1,0x107f60
  1008fb:	00 00 00 
  1008fe:	eb fe                	jmp    1008fe <panic+0x7e>

00100900 <exec>:
#include "x86.h"
#include "elf.h"

int
exec(char *path, char **argv)
{
  100900:	55                   	push   %ebp
  100901:	89 e5                	mov    %esp,%ebp
  100903:	57                   	push   %edi
  100904:	56                   	push   %esi
  100905:	53                   	push   %ebx
  100906:	81 ec 8c 00 00 00    	sub    $0x8c,%esp
  struct proghdr ph;

  mem = 0;
  sz = 0;

  if((ip = namei(path)) == 0)
  10090c:	8b 45 08             	mov    0x8(%ebp),%eax
  10090f:	89 04 24             	mov    %eax,(%esp)
  100912:	e8 89 15 00 00       	call   101ea0 <namei>
  100917:	89 c6                	mov    %eax,%esi
  100919:	b8 ff ff ff ff       	mov    $0xffffffff,%eax
  10091e:	85 f6                	test   %esi,%esi
  100920:	74 48                	je     10096a <exec+0x6a>
    return -1;
  ilock(ip);
  100922:	89 34 24             	mov    %esi,(%esp)
  100925:	e8 c6 12 00 00       	call   101bf0 <ilock>

  // Check ELF header
  if(readi(ip, (char*)&elf, 0, sizeof(elf)) < sizeof(elf))
  10092a:	8d 45 a0             	lea    -0x60(%ebp),%eax
  10092d:	c7 44 24 0c 34 00 00 	movl   $0x34,0xc(%esp)
  100934:	00 
  100935:	c7 44 24 08 00 00 00 	movl   $0x0,0x8(%esp)
  10093c:	00 
  10093d:	89 44 24 04          	mov    %eax,0x4(%esp)
  100941:	89 34 24             	mov    %esi,(%esp)
  100944:	e8 f7 09 00 00       	call   101340 <readi>
  100949:	83 f8 33             	cmp    $0x33,%eax
  10094c:	76 09                	jbe    100957 <exec+0x57>
    goto bad;
  if(elf.magic != ELF_MAGIC)
  10094e:	81 7d a0 7f 45 4c 46 	cmpl   $0x464c457f,-0x60(%ebp)
  100955:	74 21                	je     100978 <exec+0x78>
  return 0;

 bad:
  if(mem)
    kfree(mem, sz);
  iunlockput(ip);
  100957:	89 34 24             	mov    %esi,(%esp)
  10095a:	8d b6 00 00 00 00    	lea    0x0(%esi),%esi
  100960:	e8 8b 11 00 00       	call   101af0 <iunlockput>
  100965:	b8 ff ff ff ff       	mov    $0xffffffff,%eax
  return -1;
}
  10096a:	81 c4 8c 00 00 00    	add    $0x8c,%esp
  100970:	5b                   	pop    %ebx
  100971:	5e                   	pop    %esi
  100972:	5f                   	pop    %edi
  100973:	5d                   	pop    %ebp
  100974:	c3                   	ret    
  100975:	8d 76 00             	lea    0x0(%esi),%esi
  if(elf.magic != ELF_MAGIC)
    goto bad;

  // Compute memory size of new process.
  // Program segments.
  for(i=0, off=elf.phoff; i<elf.phnum; i++, off+=sizeof(ph)){
  100978:	66 83 7d cc 00       	cmpw   $0x0,-0x34(%ebp)
  10097d:	8b 7d bc             	mov    -0x44(%ebp),%edi
  100980:	c7 45 80 00 00 00 00 	movl   $0x0,-0x80(%ebp)
  100987:	74 67                	je     1009f0 <exec+0xf0>
  100989:	31 db                	xor    %ebx,%ebx
  10098b:	c7 45 80 00 00 00 00 	movl   $0x0,-0x80(%ebp)
  100992:	eb 0f                	jmp    1009a3 <exec+0xa3>
  100994:	8d 74 26 00          	lea    0x0(%esi,%eiz,1),%esi
  100998:	0f b7 45 cc          	movzwl -0x34(%ebp),%eax
  10099c:	83 c3 01             	add    $0x1,%ebx
  10099f:	39 d8                	cmp    %ebx,%eax
  1009a1:	7e 4d                	jle    1009f0 <exec+0xf0>
    if(readi(ip, (char*)&ph, off, sizeof(ph)) != sizeof(ph))
  1009a3:	89 d8                	mov    %ebx,%eax
  1009a5:	c1 e0 05             	shl    $0x5,%eax
  1009a8:	01 f8                	add    %edi,%eax
  1009aa:	8d 55 d4             	lea    -0x2c(%ebp),%edx
  1009ad:	c7 44 24 0c 20 00 00 	movl   $0x20,0xc(%esp)
  1009b4:	00 
  1009b5:	89 44 24 08          	mov    %eax,0x8(%esp)
  1009b9:	89 54 24 04          	mov    %edx,0x4(%esp)
  1009bd:	89 34 24             	mov    %esi,(%esp)
  1009c0:	e8 7b 09 00 00       	call   101340 <readi>
  1009c5:	83 f8 20             	cmp    $0x20,%eax
  1009c8:	75 8d                	jne    100957 <exec+0x57>
      goto bad;
    if(ph.type != ELF_PROG_LOAD)
  1009ca:	83 7d d4 01          	cmpl   $0x1,-0x2c(%ebp)
  1009ce:	75 c8                	jne    100998 <exec+0x98>
      continue;
    if(ph.memsz < ph.filesz)
  1009d0:	8b 45 e8             	mov    -0x18(%ebp),%eax
  1009d3:	3b 45 e4             	cmp    -0x1c(%ebp),%eax
  1009d6:	66 90                	xchg   %ax,%ax
  1009d8:	0f 82 79 ff ff ff    	jb     100957 <exec+0x57>
      goto bad;
    sz += ph.memsz;
  1009de:	01 45 80             	add    %eax,-0x80(%ebp)
  1009e1:	8d b4 26 00 00 00 00 	lea    0x0(%esi,%eiz,1),%esi
  1009e8:	eb ae                	jmp    100998 <exec+0x98>
  1009ea:	8d b6 00 00 00 00    	lea    0x0(%esi),%esi
  }
  
  // Arguments.
  arglen = 0;
  for(argc=0; argv[argc]; argc++)
  1009f0:	8b 4d 0c             	mov    0xc(%ebp),%ecx
  1009f3:	31 db                	xor    %ebx,%ebx
  1009f5:	8b 11                	mov    (%ecx),%edx
  1009f7:	b9 04 00 00 00       	mov    $0x4,%ecx
  1009fc:	c7 85 7c ff ff ff 00 	movl   $0x0,-0x84(%ebp)
  100a03:	00 00 00 
  100a06:	c7 45 88 00 00 00 00 	movl   $0x0,-0x78(%ebp)
  100a0d:	85 d2                	test   %edx,%edx
  100a0f:	74 3b                	je     100a4c <exec+0x14c>
  100a11:	8d b4 26 00 00 00 00 	lea    0x0(%esi,%eiz,1),%esi
    arglen += strlen(argv[argc]) + 1;
  100a18:	89 14 24             	mov    %edx,(%esp)
  100a1b:	e8 10 37 00 00       	call   104130 <strlen>
    sz += ph.memsz;
  }
  
  // Arguments.
  arglen = 0;
  for(argc=0; argv[argc]; argc++)
  100a20:	8b 4d 0c             	mov    0xc(%ebp),%ecx
  100a23:	83 85 7c ff ff ff 01 	addl   $0x1,-0x84(%ebp)
  100a2a:	8b bd 7c ff ff ff    	mov    -0x84(%ebp),%edi
  100a30:	8b 14 b9             	mov    (%ecx,%edi,4),%edx
    arglen += strlen(argv[argc]) + 1;
  100a33:	01 d8                	add    %ebx,%eax
  100a35:	8d 58 01             	lea    0x1(%eax),%ebx
    sz += ph.memsz;
  }
  
  // Arguments.
  arglen = 0;
  for(argc=0; argv[argc]; argc++)
  100a38:	85 d2                	test   %edx,%edx
  100a3a:	75 dc                	jne    100a18 <exec+0x118>
  100a3c:	83 c0 04             	add    $0x4,%eax
  100a3f:	83 e0 fc             	and    $0xfffffffc,%eax
  100a42:	89 45 88             	mov    %eax,-0x78(%ebp)
  100a45:	8d 0c bd 04 00 00 00 	lea    0x4(,%edi,4),%ecx

  // Stack.
  sz += PAGE;
  
  // Allocate program memory.
  sz = (sz+PAGE-1) & ~(PAGE-1);
  100a4c:	8b 7d 88             	mov    -0x78(%ebp),%edi
  100a4f:	8b 5d 80             	mov    -0x80(%ebp),%ebx
  100a52:	8d 84 1f 07 20 00 00 	lea    0x2007(%edi,%ebx,1),%eax
  100a59:	01 c8                	add    %ecx,%eax
  100a5b:	25 00 f0 ff ff       	and    $0xfffff000,%eax
  100a60:	89 45 8c             	mov    %eax,-0x74(%ebp)
  mem = kalloc(sz);
  100a63:	89 04 24             	mov    %eax,(%esp)
  100a66:	e8 55 18 00 00       	call   1022c0 <kalloc>
  if(mem == 0)
  100a6b:	85 c0                	test   %eax,%eax
  // Stack.
  sz += PAGE;
  
  // Allocate program memory.
  sz = (sz+PAGE-1) & ~(PAGE-1);
  mem = kalloc(sz);
  100a6d:	89 85 78 ff ff ff    	mov    %eax,-0x88(%ebp)
  if(mem == 0)
  100a73:	0f 84 de fe ff ff    	je     100957 <exec+0x57>
    goto bad;
  memset(mem, 0, sz);
  100a79:	8b 45 8c             	mov    -0x74(%ebp),%eax
  100a7c:	8b 95 78 ff ff ff    	mov    -0x88(%ebp),%edx
  100a82:	c7 44 24 04 00 00 00 	movl   $0x0,0x4(%esp)
  100a89:	00 
  100a8a:	89 44 24 08          	mov    %eax,0x8(%esp)
  100a8e:	89 14 24             	mov    %edx,(%esp)
  100a91:	e8 ba 34 00 00       	call   103f50 <memset>

  // Load program into memory.
  for(i=0, off=elf.phoff; i<elf.phnum; i++, off+=sizeof(ph)){
  100a96:	8b 45 bc             	mov    -0x44(%ebp),%eax
  100a99:	66 83 7d cc 00       	cmpw   $0x0,-0x34(%ebp)
  100a9e:	0f 84 c6 00 00 00    	je     100b6a <exec+0x26a>
  100aa4:	89 c7                	mov    %eax,%edi
  100aa6:	31 db                	xor    %ebx,%ebx
  100aa8:	eb 18                	jmp    100ac2 <exec+0x1c2>
  100aaa:	8d b6 00 00 00 00    	lea    0x0(%esi),%esi
  100ab0:	0f b7 45 cc          	movzwl -0x34(%ebp),%eax
  100ab4:	83 c3 01             	add    $0x1,%ebx
  100ab7:	39 d8                	cmp    %ebx,%eax
  100ab9:	0f 8e ab 00 00 00    	jle    100b6a <exec+0x26a>
  100abf:	83 c7 20             	add    $0x20,%edi
    if(readi(ip, (char*)&ph, off, sizeof(ph)) != sizeof(ph))
  100ac2:	8d 4d d4             	lea    -0x2c(%ebp),%ecx
  100ac5:	c7 44 24 0c 20 00 00 	movl   $0x20,0xc(%esp)
  100acc:	00 
  100acd:	89 7c 24 08          	mov    %edi,0x8(%esp)
  100ad1:	89 4c 24 04          	mov    %ecx,0x4(%esp)
  100ad5:	89 34 24             	mov    %esi,(%esp)
  100ad8:	e8 63 08 00 00       	call   101340 <readi>
  100add:	83 f8 20             	cmp    $0x20,%eax
  100ae0:	75 6e                	jne    100b50 <exec+0x250>
      goto bad;
    if(ph.type != ELF_PROG_LOAD)
  100ae2:	83 7d d4 01          	cmpl   $0x1,-0x2c(%ebp)
  100ae6:	75 c8                	jne    100ab0 <exec+0x1b0>
      continue;
    if(ph.va + ph.memsz < ph.va || ph.va + ph.memsz > sz)
  100ae8:	8b 45 e8             	mov    -0x18(%ebp),%eax
  100aeb:	8b 4d dc             	mov    -0x24(%ebp),%ecx
  100aee:	89 c2                	mov    %eax,%edx
  100af0:	01 ca                	add    %ecx,%edx
  100af2:	72 5c                	jb     100b50 <exec+0x250>
  100af4:	39 55 8c             	cmp    %edx,-0x74(%ebp)
  100af7:	72 57                	jb     100b50 <exec+0x250>
      goto bad;
    if(ph.memsz < ph.filesz)
  100af9:	8b 55 e4             	mov    -0x1c(%ebp),%edx
  100afc:	39 d0                	cmp    %edx,%eax
  100afe:	72 50                	jb     100b50 <exec+0x250>
      goto bad;
    if(readi(ip, mem + ph.va, ph.offset, ph.filesz) != ph.filesz)
  100b00:	8b 45 d8             	mov    -0x28(%ebp),%eax
  100b03:	89 54 24 0c          	mov    %edx,0xc(%esp)
  100b07:	89 34 24             	mov    %esi,(%esp)
  100b0a:	89 44 24 08          	mov    %eax,0x8(%esp)
  100b0e:	8b 85 78 ff ff ff    	mov    -0x88(%ebp),%eax
  100b14:	01 c8                	add    %ecx,%eax
  100b16:	89 44 24 04          	mov    %eax,0x4(%esp)
  100b1a:	e8 21 08 00 00       	call   101340 <readi>
  100b1f:	3b 45 e4             	cmp    -0x1c(%ebp),%eax
  100b22:	89 c2                	mov    %eax,%edx
  100b24:	75 2a                	jne    100b50 <exec+0x250>
      goto bad;
    memset(mem + ph.va + ph.filesz, 0, ph.memsz - ph.filesz);
  100b26:	8b 45 e8             	mov    -0x18(%ebp),%eax
  100b29:	c7 44 24 04 00 00 00 	movl   $0x0,0x4(%esp)
  100b30:	00 
  100b31:	29 d0                	sub    %edx,%eax
  100b33:	89 44 24 08          	mov    %eax,0x8(%esp)
  100b37:	8b 85 78 ff ff ff    	mov    -0x88(%ebp),%eax
  100b3d:	03 55 dc             	add    -0x24(%ebp),%edx
  100b40:	01 d0                	add    %edx,%eax
  100b42:	89 04 24             	mov    %eax,(%esp)
  100b45:	e8 06 34 00 00       	call   103f50 <memset>
  100b4a:	e9 61 ff ff ff       	jmp    100ab0 <exec+0x1b0>
  100b4f:	90                   	nop    
  usegment();
  return 0;

 bad:
  if(mem)
    kfree(mem, sz);
  100b50:	8b 4d 8c             	mov    -0x74(%ebp),%ecx
  100b53:	8b 9d 78 ff ff ff    	mov    -0x88(%ebp),%ebx
  100b59:	89 4c 24 04          	mov    %ecx,0x4(%esp)
  100b5d:	89 1c 24             	mov    %ebx,(%esp)
  100b60:	e8 0b 18 00 00       	call   102370 <kfree>
  100b65:	e9 ed fd ff ff       	jmp    100957 <exec+0x57>
      goto bad;
    if(readi(ip, mem + ph.va, ph.offset, ph.filesz) != ph.filesz)
      goto bad;
    memset(mem + ph.va + ph.filesz, 0, ph.memsz - ph.filesz);
  }
  iunlockput(ip);
  100b6a:	89 34 24             	mov    %esi,(%esp)
  100b6d:	e8 7e 0f 00 00       	call   101af0 <iunlockput>
  
  // Initialize stack.
  sp = sz;
  argp = sz - arglen - 4*(argc+1);
  100b72:	8b 85 7c ff ff ff    	mov    -0x84(%ebp),%eax
  100b78:	8b 5d 8c             	mov    -0x74(%ebp),%ebx
  100b7b:	8b 7d 88             	mov    -0x78(%ebp),%edi

  // Copy argv strings and pointers to stack.
  *(uint*)(mem+argp + 4*argc) = 0;  // argv[argc]
  100b7e:	8b 95 7c ff ff ff    	mov    -0x84(%ebp),%edx
  }
  iunlockput(ip);
  
  // Initialize stack.
  sp = sz;
  argp = sz - arglen - 4*(argc+1);
  100b84:	f7 d0                	not    %eax

  // Copy argv strings and pointers to stack.
  *(uint*)(mem+argp + 4*argc) = 0;  // argv[argc]
  100b86:	8b 8d 78 ff ff ff    	mov    -0x88(%ebp),%ecx
  }
  iunlockput(ip);
  
  // Initialize stack.
  sp = sz;
  argp = sz - arglen - 4*(argc+1);
  100b8c:	8d 04 83             	lea    (%ebx,%eax,4),%eax
  100b8f:	29 f8                	sub    %edi,%eax
  100b91:	89 45 84             	mov    %eax,-0x7c(%ebp)

  // Copy argv strings and pointers to stack.
  *(uint*)(mem+argp + 4*argc) = 0;  // argv[argc]
  100b94:	8d 04 90             	lea    (%eax,%edx,4),%eax
  for(i=argc-1; i>=0; i--){
  100b97:	83 ea 01             	sub    $0x1,%edx
  100b9a:	83 fa ff             	cmp    $0xffffffff,%edx
  // Initialize stack.
  sp = sz;
  argp = sz - arglen - 4*(argc+1);

  // Copy argv strings and pointers to stack.
  *(uint*)(mem+argp + 4*argc) = 0;  // argv[argc]
  100b9d:	c7 04 08 00 00 00 00 	movl   $0x0,(%eax,%ecx,1)
  for(i=argc-1; i>=0; i--){
  100ba4:	89 55 90             	mov    %edx,-0x70(%ebp)
  100ba7:	74 52                	je     100bfb <exec+0x2fb>
  100ba9:	8b 75 0c             	mov    0xc(%ebp),%esi
  100bac:	89 d0                	mov    %edx,%eax
  100bae:	89 cf                	mov    %ecx,%edi
  100bb0:	c1 e0 02             	shl    $0x2,%eax
  100bb3:	8b 5d 8c             	mov    -0x74(%ebp),%ebx
  100bb6:	01 c6                	add    %eax,%esi
  100bb8:	03 45 84             	add    -0x7c(%ebp),%eax
  100bbb:	01 c7                	add    %eax,%edi
  100bbd:	8d 76 00             	lea    0x0(%esi),%esi
    len = strlen(argv[i]) + 1;
  100bc0:	8b 06                	mov    (%esi),%eax
  100bc2:	89 04 24             	mov    %eax,(%esp)
  100bc5:	e8 66 35 00 00       	call   104130 <strlen>
    sp -= len;
  100bca:	83 c0 01             	add    $0x1,%eax
  100bcd:	29 c3                	sub    %eax,%ebx
    memmove(mem+sp, argv[i], len);
  100bcf:	89 44 24 08          	mov    %eax,0x8(%esp)
  100bd3:	8b 06                	mov    (%esi),%eax
  sp = sz;
  argp = sz - arglen - 4*(argc+1);

  // Copy argv strings and pointers to stack.
  *(uint*)(mem+argp + 4*argc) = 0;  // argv[argc]
  for(i=argc-1; i>=0; i--){
  100bd5:	83 ee 04             	sub    $0x4,%esi
    len = strlen(argv[i]) + 1;
    sp -= len;
    memmove(mem+sp, argv[i], len);
  100bd8:	89 44 24 04          	mov    %eax,0x4(%esp)
  100bdc:	8b 85 78 ff ff ff    	mov    -0x88(%ebp),%eax
  100be2:	01 d8                	add    %ebx,%eax
  100be4:	89 04 24             	mov    %eax,(%esp)
  100be7:	e8 f4 33 00 00       	call   103fe0 <memmove>
    *(uint*)(mem+argp + 4*i) = sp;  // argv[i]
  100bec:	89 1f                	mov    %ebx,(%edi)
  sp = sz;
  argp = sz - arglen - 4*(argc+1);

  // Copy argv strings and pointers to stack.
  *(uint*)(mem+argp + 4*argc) = 0;  // argv[argc]
  for(i=argc-1; i>=0; i--){
  100bee:	83 ef 04             	sub    $0x4,%edi
  100bf1:	83 6d 90 01          	subl   $0x1,-0x70(%ebp)
  100bf5:	83 7d 90 ff          	cmpl   $0xffffffff,-0x70(%ebp)
  100bf9:	75 c5                	jne    100bc0 <exec+0x2c0>
  }

  // Stack frame for main(argc, argv), below arguments.
  sp = argp;
  sp -= 4;
  *(uint*)(mem+sp) = argp;
  100bfb:	8b 5d 84             	mov    -0x7c(%ebp),%ebx
  100bfe:	8b bd 78 ff ff ff    	mov    -0x88(%ebp),%edi
  100c04:	89 5c 1f fc          	mov    %ebx,-0x4(%edi,%ebx,1)
  sp -= 4;
  *(uint*)(mem+sp) = argc;
  100c08:	8b 85 7c ff ff ff    	mov    -0x84(%ebp),%eax
  100c0e:	89 44 1f f8          	mov    %eax,-0x8(%edi,%ebx,1)
  sp -= 4;
  *(uint*)(mem+sp) = 0xffffffff;   // fake return pc
  100c12:	8b 55 84             	mov    -0x7c(%ebp),%edx
  sp = argp;
  sp -= 4;
  *(uint*)(mem+sp) = argp;
  sp -= 4;
  *(uint*)(mem+sp) = argc;
  sp -= 4;
  100c15:	8b 5d 84             	mov    -0x7c(%ebp),%ebx
  *(uint*)(mem+sp) = 0xffffffff;   // fake return pc
  100c18:	c7 44 17 f4 ff ff ff 	movl   $0xffffffff,-0xc(%edi,%edx,1)
  100c1f:	ff 

  // Save program name for debugging.
  for(last=s=path; *s; s++)
  100c20:	8b 4d 08             	mov    0x8(%ebp),%ecx
  sp = argp;
  sp -= 4;
  *(uint*)(mem+sp) = argp;
  sp -= 4;
  *(uint*)(mem+sp) = argc;
  sp -= 4;
  100c23:	83 eb 0c             	sub    $0xc,%ebx
  *(uint*)(mem+sp) = 0xffffffff;   // fake return pc

  // Save program name for debugging.
  for(last=s=path; *s; s++)
  100c26:	0f b6 11             	movzbl (%ecx),%edx
  100c29:	84 d2                	test   %dl,%dl
  100c2b:	74 1e                	je     100c4b <exec+0x34b>
  100c2d:	8b 45 08             	mov    0x8(%ebp),%eax
  100c30:	8b 4d 08             	mov    0x8(%ebp),%ecx
  100c33:	83 c0 01             	add    $0x1,%eax
  100c36:	eb 0a                	jmp    100c42 <exec+0x342>
  100c38:	0f b6 10             	movzbl (%eax),%edx
  100c3b:	83 c0 01             	add    $0x1,%eax
  100c3e:	84 d2                	test   %dl,%dl
  100c40:	74 09                	je     100c4b <exec+0x34b>
    if(*s == '/')
  100c42:	80 fa 2f             	cmp    $0x2f,%dl
  100c45:	75 f1                	jne    100c38 <exec+0x338>
  100c47:	89 c1                	mov    %eax,%ecx
  100c49:	eb ed                	jmp    100c38 <exec+0x338>
      last = s+1;
  safestrcpy(proc->name, last, sizeof(proc->name));
  100c4b:	65 a1 04 00 00 00    	mov    %gs:0x4,%eax
  100c51:	89 4c 24 04          	mov    %ecx,0x4(%esp)
  100c55:	c7 44 24 08 10 00 00 	movl   $0x10,0x8(%esp)
  100c5c:	00 
  100c5d:	83 c0 6c             	add    $0x6c,%eax
  100c60:	89 04 24             	mov    %eax,(%esp)
  100c63:	e8 88 34 00 00       	call   1040f0 <safestrcpy>

  // Commit to the new image.
  kfree(proc->mem, proc->sz);
  100c68:	65 8b 15 04 00 00 00 	mov    %gs:0x4,%edx
  100c6f:	8b 42 04             	mov    0x4(%edx),%eax
  100c72:	89 44 24 04          	mov    %eax,0x4(%esp)
  100c76:	8b 02                	mov    (%edx),%eax
  100c78:	89 04 24             	mov    %eax,(%esp)
  100c7b:	e8 f0 16 00 00       	call   102370 <kfree>
  proc->mem = mem;
  100c80:	65 a1 04 00 00 00    	mov    %gs:0x4,%eax
  100c86:	8b bd 78 ff ff ff    	mov    -0x88(%ebp),%edi
  100c8c:	89 38                	mov    %edi,(%eax)
  proc->sz = sz;
  100c8e:	65 a1 04 00 00 00    	mov    %gs:0x4,%eax
  100c94:	8b 55 8c             	mov    -0x74(%ebp),%edx
  100c97:	89 50 04             	mov    %edx,0x4(%eax)
  proc->tf->eip = elf.entry;  // main
  100c9a:	65 a1 04 00 00 00    	mov    %gs:0x4,%eax
  100ca0:	8b 50 18             	mov    0x18(%eax),%edx
  100ca3:	8b 45 b8             	mov    -0x48(%ebp),%eax
  100ca6:	89 42 38             	mov    %eax,0x38(%edx)
  proc->tf->esp = sp;
  100ca9:	65 a1 04 00 00 00    	mov    %gs:0x4,%eax
  100caf:	8b 40 18             	mov    0x18(%eax),%eax
  100cb2:	89 58 44             	mov    %ebx,0x44(%eax)
  usegment();
  100cb5:	e8 46 2c 00 00       	call   103900 <usegment>
  100cba:	31 c0                	xor    %eax,%eax
  100cbc:	e9 a9 fc ff ff       	jmp    10096a <exec+0x6a>
  100cc1:	90                   	nop    
  100cc2:	90                   	nop    
  100cc3:	90                   	nop    
  100cc4:	90                   	nop    
  100cc5:	90                   	nop    
  100cc6:	90                   	nop    
  100cc7:	90                   	nop    
  100cc8:	90                   	nop    
  100cc9:	90                   	nop    
  100cca:	90                   	nop    
  100ccb:	90                   	nop    
  100ccc:	90                   	nop    
  100ccd:	90                   	nop    
  100cce:	90                   	nop    
  100ccf:	90                   	nop    

00100cd0 <filewrite>:
}

// Write to file f.  Addr is kernel address.
int
filewrite(struct file *f, char *addr, int n)
{
  100cd0:	55                   	push   %ebp
  100cd1:	89 e5                	mov    %esp,%ebp
  100cd3:	83 ec 28             	sub    $0x28,%esp
  100cd6:	89 5d f4             	mov    %ebx,-0xc(%ebp)
  100cd9:	8b 5d 08             	mov    0x8(%ebp),%ebx
  100cdc:	89 75 f8             	mov    %esi,-0x8(%ebp)
  100cdf:	8b 75 10             	mov    0x10(%ebp),%esi
  100ce2:	89 7d fc             	mov    %edi,-0x4(%ebp)
  100ce5:	8b 7d 0c             	mov    0xc(%ebp),%edi
  int r;

  if(f->writable == 0)
  100ce8:	80 7b 09 00          	cmpb   $0x0,0x9(%ebx)
  100cec:	74 5a                	je     100d48 <filewrite+0x78>
    return -1;
  if(f->type == FD_PIPE)
  100cee:	8b 03                	mov    (%ebx),%eax
  100cf0:	83 f8 01             	cmp    $0x1,%eax
  100cf3:	74 5b                	je     100d50 <filewrite+0x80>
    return pipewrite(f->pipe, addr, n);
  if(f->type == FD_INODE){
  100cf5:	83 f8 02             	cmp    $0x2,%eax
  100cf8:	75 6d                	jne    100d67 <filewrite+0x97>
    ilock(f->ip);
  100cfa:	8b 43 10             	mov    0x10(%ebx),%eax
  100cfd:	89 04 24             	mov    %eax,(%esp)
  100d00:	e8 eb 0e 00 00       	call   101bf0 <ilock>
    if((r = writei(f->ip, addr, f->off, n)) > 0)
  100d05:	89 74 24 0c          	mov    %esi,0xc(%esp)
  100d09:	8b 43 14             	mov    0x14(%ebx),%eax
  100d0c:	89 7c 24 04          	mov    %edi,0x4(%esp)
  100d10:	89 44 24 08          	mov    %eax,0x8(%esp)
  100d14:	8b 43 10             	mov    0x10(%ebx),%eax
  100d17:	89 04 24             	mov    %eax,(%esp)
  100d1a:	e8 c1 07 00 00       	call   1014e0 <writei>
  100d1f:	85 c0                	test   %eax,%eax
  100d21:	89 c6                	mov    %eax,%esi
  100d23:	7e 03                	jle    100d28 <filewrite+0x58>
      f->off += r;
  100d25:	01 43 14             	add    %eax,0x14(%ebx)
    iunlock(f->ip);
  100d28:	8b 43 10             	mov    0x10(%ebx),%eax
  100d2b:	89 04 24             	mov    %eax,(%esp)
  100d2e:	e8 2d 0a 00 00       	call   101760 <iunlock>
    return r;
  }
  panic("filewrite");
}
  100d33:	89 f0                	mov    %esi,%eax
  100d35:	8b 5d f4             	mov    -0xc(%ebp),%ebx
  100d38:	8b 75 f8             	mov    -0x8(%ebp),%esi
  100d3b:	8b 7d fc             	mov    -0x4(%ebp),%edi
  100d3e:	89 ec                	mov    %ebp,%esp
  100d40:	5d                   	pop    %ebp
  100d41:	c3                   	ret    
  100d42:	8d b6 00 00 00 00    	lea    0x0(%esi),%esi
    if((r = writei(f->ip, addr, f->off, n)) > 0)
      f->off += r;
    iunlock(f->ip);
    return r;
  }
  panic("filewrite");
  100d48:	be ff ff ff ff       	mov    $0xffffffff,%esi
  100d4d:	eb e4                	jmp    100d33 <filewrite+0x63>
  100d4f:	90                   	nop    
  int r;

  if(f->writable == 0)
    return -1;
  if(f->type == FD_PIPE)
    return pipewrite(f->pipe, addr, n);
  100d50:	8b 43 0c             	mov    0xc(%ebx),%eax
      f->off += r;
    iunlock(f->ip);
    return r;
  }
  panic("filewrite");
}
  100d53:	8b 75 f8             	mov    -0x8(%ebp),%esi
  100d56:	8b 5d f4             	mov    -0xc(%ebp),%ebx
  100d59:	8b 7d fc             	mov    -0x4(%ebp),%edi
  int r;

  if(f->writable == 0)
    return -1;
  if(f->type == FD_PIPE)
    return pipewrite(f->pipe, addr, n);
  100d5c:	89 45 08             	mov    %eax,0x8(%ebp)
      f->off += r;
    iunlock(f->ip);
    return r;
  }
  panic("filewrite");
}
  100d5f:	89 ec                	mov    %ebp,%esp
  100d61:	5d                   	pop    %ebp
  int r;

  if(f->writable == 0)
    return -1;
  if(f->type == FD_PIPE)
    return pipewrite(f->pipe, addr, n);
  100d62:	e9 49 21 00 00       	jmp    102eb0 <pipewrite>
    if((r = writei(f->ip, addr, f->off, n)) > 0)
      f->off += r;
    iunlock(f->ip);
    return r;
  }
  panic("filewrite");
  100d67:	c7 04 24 d6 5f 10 00 	movl   $0x105fd6,(%esp)
  100d6e:	e8 0d fb ff ff       	call   100880 <panic>
  100d73:	8d b6 00 00 00 00    	lea    0x0(%esi),%esi
  100d79:	8d bc 27 00 00 00 00 	lea    0x0(%edi,%eiz,1),%edi

00100d80 <fileread>:
}

// Read from file f.  Addr is kernel address.
int
fileread(struct file *f, char *addr, int n)
{
  100d80:	55                   	push   %ebp
  100d81:	89 e5                	mov    %esp,%ebp
  100d83:	83 ec 28             	sub    $0x28,%esp
  100d86:	89 5d f4             	mov    %ebx,-0xc(%ebp)
  100d89:	8b 5d 08             	mov    0x8(%ebp),%ebx
  100d8c:	89 75 f8             	mov    %esi,-0x8(%ebp)
  100d8f:	8b 75 10             	mov    0x10(%ebp),%esi
  100d92:	89 7d fc             	mov    %edi,-0x4(%ebp)
  100d95:	8b 7d 0c             	mov    0xc(%ebp),%edi
  int r;

  if(f->readable == 0)
  100d98:	80 7b 08 00          	cmpb   $0x0,0x8(%ebx)
  100d9c:	74 5a                	je     100df8 <fileread+0x78>
    return -1;
  if(f->type == FD_PIPE)
  100d9e:	8b 03                	mov    (%ebx),%eax
  100da0:	83 f8 01             	cmp    $0x1,%eax
  100da3:	74 5b                	je     100e00 <fileread+0x80>
    return piperead(f->pipe, addr, n);
  if(f->type == FD_INODE){
  100da5:	83 f8 02             	cmp    $0x2,%eax
  100da8:	75 6d                	jne    100e17 <fileread+0x97>
    ilock(f->ip);
  100daa:	8b 43 10             	mov    0x10(%ebx),%eax
  100dad:	89 04 24             	mov    %eax,(%esp)
  100db0:	e8 3b 0e 00 00       	call   101bf0 <ilock>
    if((r = readi(f->ip, addr, f->off, n)) > 0)
  100db5:	89 74 24 0c          	mov    %esi,0xc(%esp)
  100db9:	8b 43 14             	mov    0x14(%ebx),%eax
  100dbc:	89 7c 24 04          	mov    %edi,0x4(%esp)
  100dc0:	89 44 24 08          	mov    %eax,0x8(%esp)
  100dc4:	8b 43 10             	mov    0x10(%ebx),%eax
  100dc7:	89 04 24             	mov    %eax,(%esp)
  100dca:	e8 71 05 00 00       	call   101340 <readi>
  100dcf:	85 c0                	test   %eax,%eax
  100dd1:	89 c6                	mov    %eax,%esi
  100dd3:	7e 03                	jle    100dd8 <fileread+0x58>
      f->off += r;
  100dd5:	01 43 14             	add    %eax,0x14(%ebx)
    iunlock(f->ip);
  100dd8:	8b 43 10             	mov    0x10(%ebx),%eax
  100ddb:	89 04 24             	mov    %eax,(%esp)
  100dde:	e8 7d 09 00 00       	call   101760 <iunlock>
    return r;
  }
  panic("fileread");
}
  100de3:	89 f0                	mov    %esi,%eax
  100de5:	8b 5d f4             	mov    -0xc(%ebp),%ebx
  100de8:	8b 75 f8             	mov    -0x8(%ebp),%esi
  100deb:	8b 7d fc             	mov    -0x4(%ebp),%edi
  100dee:	89 ec                	mov    %ebp,%esp
  100df0:	5d                   	pop    %ebp
  100df1:	c3                   	ret    
  100df2:	8d b6 00 00 00 00    	lea    0x0(%esi),%esi
    if((r = readi(f->ip, addr, f->off, n)) > 0)
      f->off += r;
    iunlock(f->ip);
    return r;
  }
  panic("fileread");
  100df8:	be ff ff ff ff       	mov    $0xffffffff,%esi
  100dfd:	eb e4                	jmp    100de3 <fileread+0x63>
  100dff:	90                   	nop    
  int r;

  if(f->readable == 0)
    return -1;
  if(f->type == FD_PIPE)
    return piperead(f->pipe, addr, n);
  100e00:	8b 43 0c             	mov    0xc(%ebx),%eax
      f->off += r;
    iunlock(f->ip);
    return r;
  }
  panic("fileread");
}
  100e03:	8b 75 f8             	mov    -0x8(%ebp),%esi
  100e06:	8b 5d f4             	mov    -0xc(%ebp),%ebx
  100e09:	8b 7d fc             	mov    -0x4(%ebp),%edi
  int r;

  if(f->readable == 0)
    return -1;
  if(f->type == FD_PIPE)
    return piperead(f->pipe, addr, n);
  100e0c:	89 45 08             	mov    %eax,0x8(%ebp)
      f->off += r;
    iunlock(f->ip);
    return r;
  }
  panic("fileread");
}
  100e0f:	89 ec                	mov    %ebp,%esp
  100e11:	5d                   	pop    %ebp
  int r;

  if(f->readable == 0)
    return -1;
  if(f->type == FD_PIPE)
    return piperead(f->pipe, addr, n);
  100e12:	e9 99 1f 00 00       	jmp    102db0 <piperead>
    if((r = readi(f->ip, addr, f->off, n)) > 0)
      f->off += r;
    iunlock(f->ip);
    return r;
  }
  panic("fileread");
  100e17:	c7 04 24 e0 5f 10 00 	movl   $0x105fe0,(%esp)
  100e1e:	e8 5d fa ff ff       	call   100880 <panic>
  100e23:	8d b6 00 00 00 00    	lea    0x0(%esi),%esi
  100e29:	8d bc 27 00 00 00 00 	lea    0x0(%edi,%eiz,1),%edi

00100e30 <filestat>:
}

// Get metadata about file f.
int
filestat(struct file *f, struct stat *st)
{
  100e30:	55                   	push   %ebp
  if(f->type == FD_INODE){
  100e31:	b8 ff ff ff ff       	mov    $0xffffffff,%eax
}

// Get metadata about file f.
int
filestat(struct file *f, struct stat *st)
{
  100e36:	89 e5                	mov    %esp,%ebp
  100e38:	53                   	push   %ebx
  100e39:	83 ec 14             	sub    $0x14,%esp
  100e3c:	8b 5d 08             	mov    0x8(%ebp),%ebx
  if(f->type == FD_INODE){
  100e3f:	83 3b 02             	cmpl   $0x2,(%ebx)
  100e42:	74 0c                	je     100e50 <filestat+0x20>
    stati(f->ip, st);
    iunlock(f->ip);
    return 0;
  }
  return -1;
}
  100e44:	83 c4 14             	add    $0x14,%esp
  100e47:	5b                   	pop    %ebx
  100e48:	5d                   	pop    %ebp
  100e49:	c3                   	ret    
  100e4a:	8d b6 00 00 00 00    	lea    0x0(%esi),%esi
// Get metadata about file f.
int
filestat(struct file *f, struct stat *st)
{
  if(f->type == FD_INODE){
    ilock(f->ip);
  100e50:	8b 43 10             	mov    0x10(%ebx),%eax
  100e53:	89 04 24             	mov    %eax,(%esp)
  100e56:	e8 95 0d 00 00       	call   101bf0 <ilock>
    stati(f->ip, st);
  100e5b:	8b 45 0c             	mov    0xc(%ebp),%eax
  100e5e:	89 44 24 04          	mov    %eax,0x4(%esp)
  100e62:	8b 43 10             	mov    0x10(%ebx),%eax
  100e65:	89 04 24             	mov    %eax,(%esp)
  100e68:	e8 d3 01 00 00       	call   101040 <stati>
    iunlock(f->ip);
  100e6d:	8b 43 10             	mov    0x10(%ebx),%eax
  100e70:	89 04 24             	mov    %eax,(%esp)
  100e73:	e8 e8 08 00 00       	call   101760 <iunlock>
    return 0;
  }
  return -1;
}
  100e78:	83 c4 14             	add    $0x14,%esp
filestat(struct file *f, struct stat *st)
{
  if(f->type == FD_INODE){
    ilock(f->ip);
    stati(f->ip, st);
    iunlock(f->ip);
  100e7b:	31 c0                	xor    %eax,%eax
    return 0;
  }
  return -1;
}
  100e7d:	5b                   	pop    %ebx
  100e7e:	5d                   	pop    %ebp
  100e7f:	c3                   	ret    

00100e80 <filedup>:
}

// Increment ref count for file f.
struct file*
filedup(struct file *f)
{
  100e80:	55                   	push   %ebp
  100e81:	89 e5                	mov    %esp,%ebp
  100e83:	53                   	push   %ebx
  100e84:	83 ec 04             	sub    $0x4,%esp
  100e87:	8b 5d 08             	mov    0x8(%ebp),%ebx
  acquire(&ftable.lock);
  100e8a:	c7 04 24 20 98 10 00 	movl   $0x109820,(%esp)
  100e91:	e8 1a 30 00 00       	call   103eb0 <acquire>
  if(f->ref < 1)
  100e96:	8b 43 04             	mov    0x4(%ebx),%eax
  100e99:	85 c0                	test   %eax,%eax
  100e9b:	7e 1a                	jle    100eb7 <filedup+0x37>
    panic("filedup");
  f->ref++;
  100e9d:	83 c0 01             	add    $0x1,%eax
  100ea0:	89 43 04             	mov    %eax,0x4(%ebx)
  release(&ftable.lock);
  100ea3:	c7 04 24 20 98 10 00 	movl   $0x109820,(%esp)
  100eaa:	e8 b1 2f 00 00       	call   103e60 <release>
  return f;
}
  100eaf:	89 d8                	mov    %ebx,%eax
  100eb1:	83 c4 04             	add    $0x4,%esp
  100eb4:	5b                   	pop    %ebx
  100eb5:	5d                   	pop    %ebp
  100eb6:	c3                   	ret    
struct file*
filedup(struct file *f)
{
  acquire(&ftable.lock);
  if(f->ref < 1)
    panic("filedup");
  100eb7:	c7 04 24 e9 5f 10 00 	movl   $0x105fe9,(%esp)
  100ebe:	e8 bd f9 ff ff       	call   100880 <panic>
  100ec3:	8d b6 00 00 00 00    	lea    0x0(%esi),%esi
  100ec9:	8d bc 27 00 00 00 00 	lea    0x0(%edi,%eiz,1),%edi

00100ed0 <filealloc>:
}

// Allocate a file structure.
struct file*
filealloc(void)
{
  100ed0:	55                   	push   %ebp
  100ed1:	89 e5                	mov    %esp,%ebp
  100ed3:	53                   	push   %ebx
  struct file *f;

  acquire(&ftable.lock);
  100ed4:	bb 54 98 10 00       	mov    $0x109854,%ebx
}

// Allocate a file structure.
struct file*
filealloc(void)
{
  100ed9:	83 ec 04             	sub    $0x4,%esp
  struct file *f;

  acquire(&ftable.lock);
  100edc:	c7 04 24 20 98 10 00 	movl   $0x109820,(%esp)
  100ee3:	e8 c8 2f 00 00       	call   103eb0 <acquire>
  100ee8:	eb 11                	jmp    100efb <filealloc+0x2b>
  100eea:	8d b6 00 00 00 00    	lea    0x0(%esi),%esi
  for(f = ftable.file; f < ftable.file + NFILE; f++){
  100ef0:	83 c3 18             	add    $0x18,%ebx
  100ef3:	81 fb b4 a1 10 00    	cmp    $0x10a1b4,%ebx
  100ef9:	74 25                	je     100f20 <filealloc+0x50>
    if(f->ref == 0){
  100efb:	8b 43 04             	mov    0x4(%ebx),%eax
  100efe:	85 c0                	test   %eax,%eax
  100f00:	75 ee                	jne    100ef0 <filealloc+0x20>
      f->ref = 1;
  100f02:	c7 43 04 01 00 00 00 	movl   $0x1,0x4(%ebx)
      release(&ftable.lock);
  100f09:	c7 04 24 20 98 10 00 	movl   $0x109820,(%esp)
  100f10:	e8 4b 2f 00 00       	call   103e60 <release>
      return f;
    }
  }
  release(&ftable.lock);
  return 0;
}
  100f15:	89 d8                	mov    %ebx,%eax
  100f17:	83 c4 04             	add    $0x4,%esp
  100f1a:	5b                   	pop    %ebx
  100f1b:	5d                   	pop    %ebp
  100f1c:	c3                   	ret    
  100f1d:	8d 76 00             	lea    0x0(%esi),%esi
      f->ref = 1;
      release(&ftable.lock);
      return f;
    }
  }
  release(&ftable.lock);
  100f20:	31 db                	xor    %ebx,%ebx
  100f22:	c7 04 24 20 98 10 00 	movl   $0x109820,(%esp)
  100f29:	e8 32 2f 00 00       	call   103e60 <release>
  return 0;
}
  100f2e:	89 d8                	mov    %ebx,%eax
  100f30:	83 c4 04             	add    $0x4,%esp
  100f33:	5b                   	pop    %ebx
  100f34:	5d                   	pop    %ebp
  100f35:	c3                   	ret    
  100f36:	8d 76 00             	lea    0x0(%esi),%esi
  100f39:	8d bc 27 00 00 00 00 	lea    0x0(%edi,%eiz,1),%edi

00100f40 <fileclose>:
}

// Close file f.  (Decrement ref count, close when reaches 0.)
void
fileclose(struct file *f)
{
  100f40:	55                   	push   %ebp
  100f41:	89 e5                	mov    %esp,%ebp
  100f43:	83 ec 28             	sub    $0x28,%esp
  100f46:	89 5d f4             	mov    %ebx,-0xc(%ebp)
  100f49:	8b 5d 08             	mov    0x8(%ebp),%ebx
  100f4c:	89 75 f8             	mov    %esi,-0x8(%ebp)
  100f4f:	89 7d fc             	mov    %edi,-0x4(%ebp)
  struct file ff;

  acquire(&ftable.lock);
  100f52:	c7 04 24 20 98 10 00 	movl   $0x109820,(%esp)
  100f59:	e8 52 2f 00 00       	call   103eb0 <acquire>
  if(f->ref < 1)
  100f5e:	8b 43 04             	mov    0x4(%ebx),%eax
  100f61:	85 c0                	test   %eax,%eax
  100f63:	0f 8e 9d 00 00 00    	jle    101006 <fileclose+0xc6>
    panic("fileclose");
  if(--f->ref > 0){
  100f69:	83 e8 01             	sub    $0x1,%eax
  100f6c:	85 c0                	test   %eax,%eax
  100f6e:	89 43 04             	mov    %eax,0x4(%ebx)
  100f71:	74 1d                	je     100f90 <fileclose+0x50>
    release(&ftable.lock);
  100f73:	c7 45 08 20 98 10 00 	movl   $0x109820,0x8(%ebp)
  
  if(ff.type == FD_PIPE)
    pipeclose(ff.pipe, ff.writable);
  else if(ff.type == FD_INODE)
    iput(ff.ip);
}
  100f7a:	8b 5d f4             	mov    -0xc(%ebp),%ebx
  100f7d:	8b 75 f8             	mov    -0x8(%ebp),%esi
  100f80:	8b 7d fc             	mov    -0x4(%ebp),%edi
  100f83:	89 ec                	mov    %ebp,%esp
  100f85:	5d                   	pop    %ebp

  acquire(&ftable.lock);
  if(f->ref < 1)
    panic("fileclose");
  if(--f->ref > 0){
    release(&ftable.lock);
  100f86:	e9 d5 2e 00 00       	jmp    103e60 <release>
  100f8b:	90                   	nop    
  100f8c:	8d 74 26 00          	lea    0x0(%esi,%eiz,1),%esi
    return;
  }
  ff = *f;
  100f90:	8b 43 10             	mov    0x10(%ebx),%eax
  100f93:	89 45 ec             	mov    %eax,-0x14(%ebp)
  100f96:	8b 53 0c             	mov    0xc(%ebx),%edx
  100f99:	89 55 f0             	mov    %edx,-0x10(%ebp)
  100f9c:	8b 33                	mov    (%ebx),%esi
  100f9e:	0f b6 7b 09          	movzbl 0x9(%ebx),%edi
  f->ref = 0;
  100fa2:	c7 43 04 00 00 00 00 	movl   $0x0,0x4(%ebx)
  f->type = FD_NONE;
  100fa9:	c7 03 00 00 00 00    	movl   $0x0,(%ebx)
  release(&ftable.lock);
  100faf:	c7 04 24 20 98 10 00 	movl   $0x109820,(%esp)
  100fb6:	e8 a5 2e 00 00       	call   103e60 <release>
  
  if(ff.type == FD_PIPE)
  100fbb:	83 fe 01             	cmp    $0x1,%esi
  100fbe:	74 30                	je     100ff0 <fileclose+0xb0>
    pipeclose(ff.pipe, ff.writable);
  else if(ff.type == FD_INODE)
  100fc0:	83 fe 02             	cmp    $0x2,%esi
  100fc3:	74 13                	je     100fd8 <fileclose+0x98>
    iput(ff.ip);
}
  100fc5:	8b 5d f4             	mov    -0xc(%ebp),%ebx
  100fc8:	8b 75 f8             	mov    -0x8(%ebp),%esi
  100fcb:	8b 7d fc             	mov    -0x4(%ebp),%edi
  100fce:	89 ec                	mov    %ebp,%esp
  100fd0:	5d                   	pop    %ebp
  100fd1:	c3                   	ret    
  100fd2:	8d b6 00 00 00 00    	lea    0x0(%esi),%esi
  release(&ftable.lock);
  
  if(ff.type == FD_PIPE)
    pipeclose(ff.pipe, ff.writable);
  else if(ff.type == FD_INODE)
    iput(ff.ip);
  100fd8:	8b 55 ec             	mov    -0x14(%ebp),%edx
}
  100fdb:	8b 5d f4             	mov    -0xc(%ebp),%ebx
  100fde:	8b 75 f8             	mov    -0x8(%ebp),%esi
  100fe1:	8b 7d fc             	mov    -0x4(%ebp),%edi
  release(&ftable.lock);
  
  if(ff.type == FD_PIPE)
    pipeclose(ff.pipe, ff.writable);
  else if(ff.type == FD_INODE)
    iput(ff.ip);
  100fe4:	89 55 08             	mov    %edx,0x8(%ebp)
}
  100fe7:	89 ec                	mov    %ebp,%esp
  100fe9:	5d                   	pop    %ebp
  release(&ftable.lock);
  
  if(ff.type == FD_PIPE)
    pipeclose(ff.pipe, ff.writable);
  else if(ff.type == FD_INODE)
    iput(ff.ip);
  100fea:	e9 a1 08 00 00       	jmp    101890 <iput>
  100fef:	90                   	nop    
  f->ref = 0;
  f->type = FD_NONE;
  release(&ftable.lock);
  
  if(ff.type == FD_PIPE)
    pipeclose(ff.pipe, ff.writable);
  100ff0:	89 fa                	mov    %edi,%edx
  100ff2:	0f be c2             	movsbl %dl,%eax
  100ff5:	89 44 24 04          	mov    %eax,0x4(%esp)
  100ff9:	8b 45 f0             	mov    -0x10(%ebp),%eax
  100ffc:	89 04 24             	mov    %eax,(%esp)
  100fff:	e8 ac 1f 00 00       	call   102fb0 <pipeclose>
  101004:	eb bf                	jmp    100fc5 <fileclose+0x85>
{
  struct file ff;

  acquire(&ftable.lock);
  if(f->ref < 1)
    panic("fileclose");
  101006:	c7 04 24 f1 5f 10 00 	movl   $0x105ff1,(%esp)
  10100d:	e8 6e f8 ff ff       	call   100880 <panic>
  101012:	8d b4 26 00 00 00 00 	lea    0x0(%esi,%eiz,1),%esi
  101019:	8d bc 27 00 00 00 00 	lea    0x0(%edi,%eiz,1),%edi

00101020 <fileinit>:
  struct file file[NFILE];
} ftable;

void
fileinit(void)
{
  101020:	55                   	push   %ebp
  101021:	89 e5                	mov    %esp,%ebp
  101023:	83 ec 08             	sub    $0x8,%esp
  initlock(&ftable.lock, "ftable");
  101026:	c7 44 24 04 fb 5f 10 	movl   $0x105ffb,0x4(%esp)
  10102d:	00 
  10102e:	c7 04 24 20 98 10 00 	movl   $0x109820,(%esp)
  101035:	e8 e6 2c 00 00       	call   103d20 <initlock>
}
  10103a:	c9                   	leave  
  10103b:	c3                   	ret    
  10103c:	90                   	nop    
  10103d:	90                   	nop    
  10103e:	90                   	nop    
  10103f:	90                   	nop    

00101040 <stati>:
}

// Copy stat information from inode.
void
stati(struct inode *ip, struct stat *st)
{
  101040:	55                   	push   %ebp
  101041:	89 e5                	mov    %esp,%ebp
  101043:	8b 55 08             	mov    0x8(%ebp),%edx
  101046:	8b 4d 0c             	mov    0xc(%ebp),%ecx
  st->dev = ip->dev;
  101049:	8b 02                	mov    (%edx),%eax
  10104b:	89 41 04             	mov    %eax,0x4(%ecx)
  st->ino = ip->inum;
  10104e:	8b 42 04             	mov    0x4(%edx),%eax
  101051:	89 41 08             	mov    %eax,0x8(%ecx)
  st->type = ip->type;
  101054:	0f b7 42 10          	movzwl 0x10(%edx),%eax
  101058:	66 89 01             	mov    %ax,(%ecx)
  st->nlink = ip->nlink;
  10105b:	0f b7 42 16          	movzwl 0x16(%edx),%eax
  10105f:	66 89 41 0c          	mov    %ax,0xc(%ecx)
  st->size = ip->size;
  101063:	8b 42 18             	mov    0x18(%edx),%eax
  101066:	89 41 10             	mov    %eax,0x10(%ecx)
}
  101069:	5d                   	pop    %ebp
  10106a:	c3                   	ret    
  10106b:	90                   	nop    
  10106c:	8d 74 26 00          	lea    0x0(%esi,%eiz,1),%esi

00101070 <idup>:

// Increment reference count for ip.
// Returns ip to enable ip = idup(ip1) idiom.
struct inode*
idup(struct inode *ip)
{
  101070:	55                   	push   %ebp
  101071:	89 e5                	mov    %esp,%ebp
  101073:	53                   	push   %ebx
  101074:	83 ec 04             	sub    $0x4,%esp
  101077:	8b 5d 08             	mov    0x8(%ebp),%ebx
  acquire(&icache.lock);
  10107a:	c7 04 24 20 a2 10 00 	movl   $0x10a220,(%esp)
  101081:	e8 2a 2e 00 00       	call   103eb0 <acquire>
  ip->ref++;
  101086:	83 43 08 01          	addl   $0x1,0x8(%ebx)
  release(&icache.lock);
  10108a:	c7 04 24 20 a2 10 00 	movl   $0x10a220,(%esp)
  101091:	e8 ca 2d 00 00       	call   103e60 <release>
  return ip;
}
  101096:	89 d8                	mov    %ebx,%eax
  101098:	83 c4 04             	add    $0x4,%esp
  10109b:	5b                   	pop    %ebx
  10109c:	5d                   	pop    %ebp
  10109d:	c3                   	ret    
  10109e:	66 90                	xchg   %ax,%ax

001010a0 <iget>:

// Find the inode with number inum on device dev
// and return the in-memory copy.
static struct inode*
iget(uint dev, uint inum)
{
  1010a0:	55                   	push   %ebp
  1010a1:	89 e5                	mov    %esp,%ebp
  1010a3:	57                   	push   %edi
  1010a4:	89 c7                	mov    %eax,%edi
  1010a6:	56                   	push   %esi
  struct inode *ip, *empty;

  acquire(&icache.lock);
  1010a7:	31 f6                	xor    %esi,%esi

// Find the inode with number inum on device dev
// and return the in-memory copy.
static struct inode*
iget(uint dev, uint inum)
{
  1010a9:	53                   	push   %ebx
  struct inode *ip, *empty;

  acquire(&icache.lock);
  1010aa:	bb 54 a2 10 00       	mov    $0x10a254,%ebx

// Find the inode with number inum on device dev
// and return the in-memory copy.
static struct inode*
iget(uint dev, uint inum)
{
  1010af:	83 ec 0c             	sub    $0xc,%esp
  1010b2:	89 55 f0             	mov    %edx,-0x10(%ebp)
  struct inode *ip, *empty;

  acquire(&icache.lock);
  1010b5:	c7 04 24 20 a2 10 00 	movl   $0x10a220,(%esp)
  1010bc:	e8 ef 2d 00 00       	call   103eb0 <acquire>
  1010c1:	eb 17                	jmp    1010da <iget+0x3a>
  1010c3:	90                   	nop    
  1010c4:	8d 74 26 00          	lea    0x0(%esi,%eiz,1),%esi
    if(ip->ref > 0 && ip->dev == dev && ip->inum == inum){
      ip->ref++;
      release(&icache.lock);
      return ip;
    }
    if(empty == 0 && ip->ref == 0)    // Remember empty slot.
  1010c8:	85 f6                	test   %esi,%esi
  1010ca:	74 44                	je     101110 <iget+0x70>

  acquire(&icache.lock);

  // Try for cached inode.
  empty = 0;
  for(ip = &icache.inode[0]; ip < &icache.inode[NINODE]; ip++){
  1010cc:	83 c3 50             	add    $0x50,%ebx
  1010cf:	81 fb f4 b1 10 00    	cmp    $0x10b1f4,%ebx
  1010d5:	8d 76 00             	lea    0x0(%esi),%esi
  1010d8:	74 4e                	je     101128 <iget+0x88>
    if(ip->ref > 0 && ip->dev == dev && ip->inum == inum){
  1010da:	8b 43 08             	mov    0x8(%ebx),%eax
  1010dd:	85 c0                	test   %eax,%eax
  1010df:	7e e7                	jle    1010c8 <iget+0x28>
  1010e1:	39 3b                	cmp    %edi,(%ebx)
  1010e3:	75 e3                	jne    1010c8 <iget+0x28>
  1010e5:	8b 55 f0             	mov    -0x10(%ebp),%edx
  1010e8:	39 53 04             	cmp    %edx,0x4(%ebx)
  1010eb:	75 db                	jne    1010c8 <iget+0x28>
      ip->ref++;
  1010ed:	83 c0 01             	add    $0x1,%eax
  1010f0:	89 43 08             	mov    %eax,0x8(%ebx)
      release(&icache.lock);
  1010f3:	c7 04 24 20 a2 10 00 	movl   $0x10a220,(%esp)
  1010fa:	e8 61 2d 00 00       	call   103e60 <release>
  ip->ref = 1;
  ip->flags = 0;
  release(&icache.lock);

  return ip;
}
  1010ff:	83 c4 0c             	add    $0xc,%esp
  101102:	89 d8                	mov    %ebx,%eax
  101104:	5b                   	pop    %ebx
  101105:	5e                   	pop    %esi
  101106:	5f                   	pop    %edi
  101107:	5d                   	pop    %ebp
  101108:	c3                   	ret    
  101109:	8d b4 26 00 00 00 00 	lea    0x0(%esi,%eiz,1),%esi
    if(ip->ref > 0 && ip->dev == dev && ip->inum == inum){
      ip->ref++;
      release(&icache.lock);
      return ip;
    }
    if(empty == 0 && ip->ref == 0)    // Remember empty slot.
  101110:	85 c0                	test   %eax,%eax
  101112:	75 b8                	jne    1010cc <iget+0x2c>
  101114:	89 de                	mov    %ebx,%esi

  acquire(&icache.lock);

  // Try for cached inode.
  empty = 0;
  for(ip = &icache.inode[0]; ip < &icache.inode[NINODE]; ip++){
  101116:	83 c3 50             	add    $0x50,%ebx
  101119:	81 fb f4 b1 10 00    	cmp    $0x10b1f4,%ebx
  10111f:	75 b9                	jne    1010da <iget+0x3a>
  101121:	8d b4 26 00 00 00 00 	lea    0x0(%esi,%eiz,1),%esi
    if(empty == 0 && ip->ref == 0)    // Remember empty slot.
      empty = ip;
  }

  // Allocate fresh inode.
  if(empty == 0)
  101128:	85 f6                	test   %esi,%esi
  10112a:	74 2e                	je     10115a <iget+0xba>
    panic("iget: no inodes");

  ip = empty;
  ip->dev = dev;
  10112c:	89 3e                	mov    %edi,(%esi)
  ip->inum = inum;
  10112e:	8b 45 f0             	mov    -0x10(%ebp),%eax
  ip->ref = 1;
  ip->flags = 0;
  release(&icache.lock);
  101131:	89 f3                	mov    %esi,%ebx
    panic("iget: no inodes");

  ip = empty;
  ip->dev = dev;
  ip->inum = inum;
  ip->ref = 1;
  101133:	c7 46 08 01 00 00 00 	movl   $0x1,0x8(%esi)
  ip->flags = 0;
  10113a:	c7 46 0c 00 00 00 00 	movl   $0x0,0xc(%esi)
  if(empty == 0)
    panic("iget: no inodes");

  ip = empty;
  ip->dev = dev;
  ip->inum = inum;
  101141:	89 46 04             	mov    %eax,0x4(%esi)
  ip->ref = 1;
  ip->flags = 0;
  release(&icache.lock);
  101144:	c7 04 24 20 a2 10 00 	movl   $0x10a220,(%esp)
  10114b:	e8 10 2d 00 00       	call   103e60 <release>

  return ip;
}
  101150:	83 c4 0c             	add    $0xc,%esp
  101153:	89 d8                	mov    %ebx,%eax
  101155:	5b                   	pop    %ebx
  101156:	5e                   	pop    %esi
  101157:	5f                   	pop    %edi
  101158:	5d                   	pop    %ebp
  101159:	c3                   	ret    
      empty = ip;
  }

  // Allocate fresh inode.
  if(empty == 0)
    panic("iget: no inodes");
  10115a:	c7 04 24 02 60 10 00 	movl   $0x106002,(%esp)
  101161:	e8 1a f7 ff ff       	call   100880 <panic>
  101166:	8d 76 00             	lea    0x0(%esi),%esi
  101169:	8d bc 27 00 00 00 00 	lea    0x0(%edi,%eiz,1),%edi

00101170 <readsb>:
static void itrunc(struct inode*);

// Read the super block.
static void
readsb(int dev, struct superblock *sb)
{
  101170:	55                   	push   %ebp
  101171:	89 e5                	mov    %esp,%ebp
  101173:	83 ec 18             	sub    $0x18,%esp
  struct buf *bp;
  
  bp = bread(dev, 1);
  101176:	c7 44 24 04 01 00 00 	movl   $0x1,0x4(%esp)
  10117d:	00 
static void itrunc(struct inode*);

// Read the super block.
static void
readsb(int dev, struct superblock *sb)
{
  10117e:	89 5d f8             	mov    %ebx,-0x8(%ebp)
  101181:	89 75 fc             	mov    %esi,-0x4(%ebp)
  101184:	89 d6                	mov    %edx,%esi
  struct buf *bp;
  
  bp = bread(dev, 1);
  101186:	89 04 24             	mov    %eax,(%esp)
  101189:	e8 32 ef ff ff       	call   1000c0 <bread>
  memmove(sb, bp->data, sizeof(*sb));
  10118e:	89 34 24             	mov    %esi,(%esp)
  101191:	c7 44 24 08 0c 00 00 	movl   $0xc,0x8(%esp)
  101198:	00 
static void
readsb(int dev, struct superblock *sb)
{
  struct buf *bp;
  
  bp = bread(dev, 1);
  101199:	89 c3                	mov    %eax,%ebx
  memmove(sb, bp->data, sizeof(*sb));
  10119b:	8d 40 18             	lea    0x18(%eax),%eax
  10119e:	89 44 24 04          	mov    %eax,0x4(%esp)
  1011a2:	e8 39 2e 00 00       	call   103fe0 <memmove>
  brelse(bp);
  1011a7:	89 1c 24             	mov    %ebx,(%esp)
  1011aa:	e8 51 ee ff ff       	call   100000 <brelse>
}
  1011af:	8b 5d f8             	mov    -0x8(%ebp),%ebx
  1011b2:	8b 75 fc             	mov    -0x4(%ebp),%esi
  1011b5:	89 ec                	mov    %ebp,%esp
  1011b7:	5d                   	pop    %ebp
  1011b8:	c3                   	ret    
  1011b9:	8d b4 26 00 00 00 00 	lea    0x0(%esi,%eiz,1),%esi

001011c0 <balloc>:
// Blocks. 

// Allocate a disk block.
static uint
balloc(uint dev)
{
  1011c0:	55                   	push   %ebp
  1011c1:	89 e5                	mov    %esp,%ebp
  1011c3:	57                   	push   %edi
  1011c4:	56                   	push   %esi
  1011c5:	53                   	push   %ebx
  1011c6:	83 ec 2c             	sub    $0x2c,%esp
  int b, bi, m;
  struct buf *bp;
  struct superblock sb;

  bp = 0;
  readsb(dev, &sb);
  1011c9:	8d 55 e8             	lea    -0x18(%ebp),%edx
// Blocks. 

// Allocate a disk block.
static uint
balloc(uint dev)
{
  1011cc:	89 45 dc             	mov    %eax,-0x24(%ebp)
  int b, bi, m;
  struct buf *bp;
  struct superblock sb;

  bp = 0;
  readsb(dev, &sb);
  1011cf:	e8 9c ff ff ff       	call   101170 <readsb>
  for(b = 0; b < sb.size; b += BPB){
  1011d4:	8b 45 e8             	mov    -0x18(%ebp),%eax
  1011d7:	85 c0                	test   %eax,%eax
  1011d9:	0f 84 a4 00 00 00    	je     101283 <balloc+0xc3>
  1011df:	c7 45 e0 00 00 00 00 	movl   $0x0,-0x20(%ebp)
    bp = bread(dev, BBLOCK(b, sb.ninodes));
  1011e6:	8b 45 f0             	mov    -0x10(%ebp),%eax
  1011e9:	31 db                	xor    %ebx,%ebx
  1011eb:	8b 55 e0             	mov    -0x20(%ebp),%edx
  1011ee:	c1 e8 03             	shr    $0x3,%eax
  1011f1:	c1 fa 0c             	sar    $0xc,%edx
  1011f4:	8d 44 10 03          	lea    0x3(%eax,%edx,1),%eax
  1011f8:	89 44 24 04          	mov    %eax,0x4(%esp)
  1011fc:	8b 45 dc             	mov    -0x24(%ebp),%eax
  1011ff:	89 04 24             	mov    %eax,(%esp)
  101202:	e8 b9 ee ff ff       	call   1000c0 <bread>
  101207:	89 c7                	mov    %eax,%edi
  101209:	eb 10                	jmp    10121b <balloc+0x5b>
  10120b:	90                   	nop    
  10120c:	8d 74 26 00          	lea    0x0(%esi,%eiz,1),%esi
    for(bi = 0; bi < BPB; bi++){
  101210:	83 c3 01             	add    $0x1,%ebx
  101213:	81 fb 00 10 00 00    	cmp    $0x1000,%ebx
  101219:	74 4d                	je     101268 <balloc+0xa8>
      m = 1 << (bi % 8);
  10121b:	89 d9                	mov    %ebx,%ecx
  10121d:	ba 01 00 00 00       	mov    $0x1,%edx
  101222:	83 e1 07             	and    $0x7,%ecx
      if((bp->data[bi/8] & m) == 0){  // Is block free?
  101225:	89 de                	mov    %ebx,%esi
  bp = 0;
  readsb(dev, &sb);
  for(b = 0; b < sb.size; b += BPB){
    bp = bread(dev, BBLOCK(b, sb.ninodes));
    for(bi = 0; bi < BPB; bi++){
      m = 1 << (bi % 8);
  101227:	d3 e2                	shl    %cl,%edx
      if((bp->data[bi/8] & m) == 0){  // Is block free?
  101229:	c1 fe 03             	sar    $0x3,%esi
  bp = 0;
  readsb(dev, &sb);
  for(b = 0; b < sb.size; b += BPB){
    bp = bread(dev, BBLOCK(b, sb.ninodes));
    for(bi = 0; bi < BPB; bi++){
      m = 1 << (bi % 8);
  10122c:	89 d1                	mov    %edx,%ecx
      if((bp->data[bi/8] & m) == 0){  // Is block free?
  10122e:	0f b6 54 37 18       	movzbl 0x18(%edi,%esi,1),%edx
  101233:	0f b6 c2             	movzbl %dl,%eax
  101236:	85 c8                	test   %ecx,%eax
  101238:	75 d6                	jne    101210 <balloc+0x50>
        bp->data[bi/8] |= m;  // Mark block in use on disk.
  10123a:	09 ca                	or     %ecx,%edx
  10123c:	88 54 37 18          	mov    %dl,0x18(%edi,%esi,1)
        bwrite(bp, "balloc");
  101240:	89 3c 24             	mov    %edi,(%esp)
  101243:	c7 44 24 04 12 60 10 	movl   $0x106012,0x4(%esp)
  10124a:	00 
  10124b:	e8 20 ee ff ff       	call   100070 <bwrite>
        brelse(bp);
  101250:	89 3c 24             	mov    %edi,(%esp)
  101253:	e8 a8 ed ff ff       	call   100000 <brelse>
  101258:	8b 55 e0             	mov    -0x20(%ebp),%edx
      }
    }
    brelse(bp);
  }
  panic("balloc: out of blocks");
}
  10125b:	83 c4 2c             	add    $0x2c,%esp
    for(bi = 0; bi < BPB; bi++){
      m = 1 << (bi % 8);
      if((bp->data[bi/8] & m) == 0){  // Is block free?
        bp->data[bi/8] |= m;  // Mark block in use on disk.
        bwrite(bp, "balloc");
        brelse(bp);
  10125e:	8d 04 13             	lea    (%ebx,%edx,1),%eax
      }
    }
    brelse(bp);
  }
  panic("balloc: out of blocks");
}
  101261:	5b                   	pop    %ebx
  101262:	5e                   	pop    %esi
  101263:	5f                   	pop    %edi
  101264:	5d                   	pop    %ebp
  101265:	c3                   	ret    
  101266:	66 90                	xchg   %ax,%ax
        bwrite(bp, "balloc");
        brelse(bp);
        return b + bi;
      }
    }
    brelse(bp);
  101268:	89 3c 24             	mov    %edi,(%esp)
  10126b:	e8 90 ed ff ff       	call   100000 <brelse>
  struct buf *bp;
  struct superblock sb;

  bp = 0;
  readsb(dev, &sb);
  for(b = 0; b < sb.size; b += BPB){
  101270:	81 45 e0 00 10 00 00 	addl   $0x1000,-0x20(%ebp)
  101277:	8b 45 e0             	mov    -0x20(%ebp),%eax
  10127a:	39 45 e8             	cmp    %eax,-0x18(%ebp)
  10127d:	0f 87 63 ff ff ff    	ja     1011e6 <balloc+0x26>
        return b + bi;
      }
    }
    brelse(bp);
  }
  panic("balloc: out of blocks");
  101283:	c7 04 24 19 60 10 00 	movl   $0x106019,(%esp)
  10128a:	e8 f1 f5 ff ff       	call   100880 <panic>
  10128f:	90                   	nop    

00101290 <bmap>:

// Return the disk block address of the nth block in inode ip.
// If there is no such block, bmap allocates one.
static uint
bmap(struct inode *ip, uint bn)
{
  101290:	55                   	push   %ebp
  101291:	89 e5                	mov    %esp,%ebp
  101293:	83 ec 18             	sub    $0x18,%esp
  uint addr, *a;
  struct buf *bp;

  if(bn < NDIRECT){
  101296:	83 fa 0b             	cmp    $0xb,%edx

// Return the disk block address of the nth block in inode ip.
// If there is no such block, bmap allocates one.
static uint
bmap(struct inode *ip, uint bn)
{
  101299:	89 75 f8             	mov    %esi,-0x8(%ebp)
  10129c:	89 c6                	mov    %eax,%esi
  10129e:	89 5d f4             	mov    %ebx,-0xc(%ebp)
  1012a1:	89 7d fc             	mov    %edi,-0x4(%ebp)
  uint addr, *a;
  struct buf *bp;

  if(bn < NDIRECT){
  1012a4:	77 1a                	ja     1012c0 <bmap+0x30>
    if((addr = ip->addrs[bn]) == 0)
  1012a6:	8d 7a 04             	lea    0x4(%edx),%edi
  1012a9:	8b 5c b8 0c          	mov    0xc(%eax,%edi,4),%ebx
  1012ad:	85 db                	test   %ebx,%ebx
  1012af:	74 67                	je     101318 <bmap+0x88>
    brelse(bp);
    return addr;
  }

  panic("bmap: out of range");
}
  1012b1:	89 d8                	mov    %ebx,%eax
  1012b3:	8b 75 f8             	mov    -0x8(%ebp),%esi
  1012b6:	8b 5d f4             	mov    -0xc(%ebp),%ebx
  1012b9:	8b 7d fc             	mov    -0x4(%ebp),%edi
  1012bc:	89 ec                	mov    %ebp,%esp
  1012be:	5d                   	pop    %ebp
  1012bf:	c3                   	ret    
  if(bn < NDIRECT){
    if((addr = ip->addrs[bn]) == 0)
      ip->addrs[bn] = addr = balloc(ip->dev);
    return addr;
  }
  bn -= NDIRECT;
  1012c0:	8d 5a f4             	lea    -0xc(%edx),%ebx

  if(bn < NINDIRECT){
  1012c3:	83 fb 7f             	cmp    $0x7f,%ebx
  1012c6:	77 6c                	ja     101334 <bmap+0xa4>
    // Load indirect block, allocating if necessary.
    if((addr = ip->addrs[NDIRECT]) == 0)
  1012c8:	8b 40 4c             	mov    0x4c(%eax),%eax
  1012cb:	85 c0                	test   %eax,%eax
  1012cd:	74 59                	je     101328 <bmap+0x98>
      ip->addrs[NDIRECT] = addr = balloc(ip->dev);
    bp = bread(ip->dev, addr);
  1012cf:	89 44 24 04          	mov    %eax,0x4(%esp)
  1012d3:	8b 06                	mov    (%esi),%eax
  1012d5:	89 04 24             	mov    %eax,(%esp)
  1012d8:	e8 e3 ed ff ff       	call   1000c0 <bread>
    a = (uint*)bp->data;
    if((addr = a[bn]) == 0){
  1012dd:	8d 5c 98 18          	lea    0x18(%eax,%ebx,4),%ebx

  if(bn < NINDIRECT){
    // Load indirect block, allocating if necessary.
    if((addr = ip->addrs[NDIRECT]) == 0)
      ip->addrs[NDIRECT] = addr = balloc(ip->dev);
    bp = bread(ip->dev, addr);
  1012e1:	89 c7                	mov    %eax,%edi
    a = (uint*)bp->data;
    if((addr = a[bn]) == 0){
  1012e3:	89 5d f0             	mov    %ebx,-0x10(%ebp)
  1012e6:	8b 1b                	mov    (%ebx),%ebx
  1012e8:	85 db                	test   %ebx,%ebx
  1012ea:	75 1e                	jne    10130a <bmap+0x7a>
      a[bn] = addr = balloc(ip->dev);
  1012ec:	8b 06                	mov    (%esi),%eax
  1012ee:	e8 cd fe ff ff       	call   1011c0 <balloc>
  1012f3:	89 c3                	mov    %eax,%ebx
  1012f5:	8b 45 f0             	mov    -0x10(%ebp),%eax
  1012f8:	89 18                	mov    %ebx,(%eax)
      bwrite(bp, "bmap");
  1012fa:	c7 44 24 04 2f 60 10 	movl   $0x10602f,0x4(%esp)
  101301:	00 
  101302:	89 3c 24             	mov    %edi,(%esp)
  101305:	e8 66 ed ff ff       	call   100070 <bwrite>
    }
    brelse(bp);
  10130a:	89 3c 24             	mov    %edi,(%esp)
  10130d:	e8 ee ec ff ff       	call   100000 <brelse>
  101312:	eb 9d                	jmp    1012b1 <bmap+0x21>
  101314:	8d 74 26 00          	lea    0x0(%esi,%eiz,1),%esi
  uint addr, *a;
  struct buf *bp;

  if(bn < NDIRECT){
    if((addr = ip->addrs[bn]) == 0)
      ip->addrs[bn] = addr = balloc(ip->dev);
  101318:	8b 00                	mov    (%eax),%eax
  10131a:	e8 a1 fe ff ff       	call   1011c0 <balloc>
  10131f:	89 c3                	mov    %eax,%ebx
  101321:	89 44 be 0c          	mov    %eax,0xc(%esi,%edi,4)
  101325:	eb 8a                	jmp    1012b1 <bmap+0x21>
  101327:	90                   	nop    
  bn -= NDIRECT;

  if(bn < NINDIRECT){
    // Load indirect block, allocating if necessary.
    if((addr = ip->addrs[NDIRECT]) == 0)
      ip->addrs[NDIRECT] = addr = balloc(ip->dev);
  101328:	8b 06                	mov    (%esi),%eax
  10132a:	e8 91 fe ff ff       	call   1011c0 <balloc>
  10132f:	89 46 4c             	mov    %eax,0x4c(%esi)
  101332:	eb 9b                	jmp    1012cf <bmap+0x3f>
    }
    brelse(bp);
    return addr;
  }

  panic("bmap: out of range");
  101334:	c7 04 24 34 60 10 00 	movl   $0x106034,(%esp)
  10133b:	e8 40 f5 ff ff       	call   100880 <panic>

00101340 <readi>:
}

// Read data from inode.
int
readi(struct inode *ip, char *dst, uint off, uint n)
{
  101340:	55                   	push   %ebp
  101341:	89 e5                	mov    %esp,%ebp
  101343:	83 ec 28             	sub    $0x28,%esp
  101346:	89 7d fc             	mov    %edi,-0x4(%ebp)
  101349:	8b 45 0c             	mov    0xc(%ebp),%eax
  10134c:	8b 7d 08             	mov    0x8(%ebp),%edi
  10134f:	8b 4d 14             	mov    0x14(%ebp),%ecx
  101352:	89 5d f4             	mov    %ebx,-0xc(%ebp)
  101355:	8b 5d 10             	mov    0x10(%ebp),%ebx
  101358:	89 75 f8             	mov    %esi,-0x8(%ebp)
  10135b:	89 45 e8             	mov    %eax,-0x18(%ebp)
  10135e:	89 4d e4             	mov    %ecx,-0x1c(%ebp)
  uint tot, m;
  struct buf *bp;

  if(ip->type == T_DEV){
  101361:	66 83 7f 10 03       	cmpw   $0x3,0x10(%edi)
  101366:	74 20                	je     101388 <readi+0x48>
    if(ip->major < 0 || ip->major >= NDEV || !devsw[ip->major].read)
      return -1;
    return devsw[ip->major].read(ip, dst, n);
  }

  if(off > ip->size || off + n < off)
  101368:	8b 47 18             	mov    0x18(%edi),%eax
  10136b:	39 d8                	cmp    %ebx,%eax
  10136d:	73 49                	jae    1013b8 <readi+0x78>
    bp = bread(ip->dev, bmap(ip, off/BSIZE));
    m = min(n - tot, BSIZE - off%BSIZE);
    memmove(dst, bp->data + off%BSIZE, m);
    brelse(bp);
  }
  return n;
  10136f:	b8 ff ff ff ff       	mov    $0xffffffff,%eax
}
  101374:	8b 5d f4             	mov    -0xc(%ebp),%ebx
  101377:	8b 75 f8             	mov    -0x8(%ebp),%esi
  10137a:	8b 7d fc             	mov    -0x4(%ebp),%edi
  10137d:	89 ec                	mov    %ebp,%esp
  10137f:	5d                   	pop    %ebp
  101380:	c3                   	ret    
  101381:	8d b4 26 00 00 00 00 	lea    0x0(%esi,%eiz,1),%esi
{
  uint tot, m;
  struct buf *bp;

  if(ip->type == T_DEV){
    if(ip->major < 0 || ip->major >= NDEV || !devsw[ip->major].read)
  101388:	0f b7 47 12          	movzwl 0x12(%edi),%eax
  10138c:	66 83 f8 09          	cmp    $0x9,%ax
  101390:	77 dd                	ja     10136f <readi+0x2f>
  101392:	98                   	cwtl   
  101393:	8b 0c c5 c0 a1 10 00 	mov    0x10a1c0(,%eax,8),%ecx
  10139a:	85 c9                	test   %ecx,%ecx
  10139c:	74 d1                	je     10136f <readi+0x2f>
      return -1;
    return devsw[ip->major].read(ip, dst, n);
  10139e:	8b 45 e4             	mov    -0x1c(%ebp),%eax
    m = min(n - tot, BSIZE - off%BSIZE);
    memmove(dst, bp->data + off%BSIZE, m);
    brelse(bp);
  }
  return n;
}
  1013a1:	8b 5d f4             	mov    -0xc(%ebp),%ebx
  1013a4:	8b 75 f8             	mov    -0x8(%ebp),%esi
  1013a7:	8b 7d fc             	mov    -0x4(%ebp),%edi
  struct buf *bp;

  if(ip->type == T_DEV){
    if(ip->major < 0 || ip->major >= NDEV || !devsw[ip->major].read)
      return -1;
    return devsw[ip->major].read(ip, dst, n);
  1013aa:	89 45 10             	mov    %eax,0x10(%ebp)
    m = min(n - tot, BSIZE - off%BSIZE);
    memmove(dst, bp->data + off%BSIZE, m);
    brelse(bp);
  }
  return n;
}
  1013ad:	89 ec                	mov    %ebp,%esp
  1013af:	5d                   	pop    %ebp
  struct buf *bp;

  if(ip->type == T_DEV){
    if(ip->major < 0 || ip->major >= NDEV || !devsw[ip->major].read)
      return -1;
    return devsw[ip->major].read(ip, dst, n);
  1013b0:	ff e1                	jmp    *%ecx
  1013b2:	8d b6 00 00 00 00    	lea    0x0(%esi),%esi
  }

  if(off > ip->size || off + n < off)
  1013b8:	8b 55 e4             	mov    -0x1c(%ebp),%edx
  1013bb:	01 da                	add    %ebx,%edx
  1013bd:	72 b0                	jb     10136f <readi+0x2f>
    return -1;
  if(off + n > ip->size)
  1013bf:	39 d0                	cmp    %edx,%eax
  1013c1:	73 05                	jae    1013c8 <readi+0x88>
    n = ip->size - off;
  1013c3:	29 d8                	sub    %ebx,%eax
  1013c5:	89 45 e4             	mov    %eax,-0x1c(%ebp)

  for(tot=0; tot<n; tot+=m, off+=m, dst+=m){
  1013c8:	8b 55 e4             	mov    -0x1c(%ebp),%edx
  1013cb:	85 d2                	test   %edx,%edx
  1013cd:	74 76                	je     101445 <readi+0x105>
  1013cf:	c7 45 ec 00 00 00 00 	movl   $0x0,-0x14(%ebp)
  1013d6:	66 90                	xchg   %ax,%ax
    bp = bread(ip->dev, bmap(ip, off/BSIZE));
  1013d8:	89 da                	mov    %ebx,%edx
  1013da:	89 f8                	mov    %edi,%eax
  1013dc:	c1 ea 09             	shr    $0x9,%edx
    m = min(n - tot, BSIZE - off%BSIZE);
  1013df:	be 00 02 00 00       	mov    $0x200,%esi
    return -1;
  if(off + n > ip->size)
    n = ip->size - off;

  for(tot=0; tot<n; tot+=m, off+=m, dst+=m){
    bp = bread(ip->dev, bmap(ip, off/BSIZE));
  1013e4:	e8 a7 fe ff ff       	call   101290 <bmap>
  1013e9:	89 44 24 04          	mov    %eax,0x4(%esp)
  1013ed:	8b 07                	mov    (%edi),%eax
  1013ef:	89 04 24             	mov    %eax,(%esp)
  1013f2:	e8 c9 ec ff ff       	call   1000c0 <bread>
    m = min(n - tot, BSIZE - off%BSIZE);
  1013f7:	89 da                	mov    %ebx,%edx
  1013f9:	81 e2 ff 01 00 00    	and    $0x1ff,%edx
  1013ff:	29 d6                	sub    %edx,%esi
    return -1;
  if(off + n > ip->size)
    n = ip->size - off;

  for(tot=0; tot<n; tot+=m, off+=m, dst+=m){
    bp = bread(ip->dev, bmap(ip, off/BSIZE));
  101401:	89 45 f0             	mov    %eax,-0x10(%ebp)
    m = min(n - tot, BSIZE - off%BSIZE);
  101404:	8b 45 e4             	mov    -0x1c(%ebp),%eax
  101407:	2b 45 ec             	sub    -0x14(%ebp),%eax
  10140a:	39 c6                	cmp    %eax,%esi
  10140c:	76 02                	jbe    101410 <readi+0xd0>
  10140e:	89 c6                	mov    %eax,%esi
    memmove(dst, bp->data + off%BSIZE, m);
  101410:	89 74 24 08          	mov    %esi,0x8(%esp)
  101414:	8b 4d f0             	mov    -0x10(%ebp),%ecx
  if(off > ip->size || off + n < off)
    return -1;
  if(off + n > ip->size)
    n = ip->size - off;

  for(tot=0; tot<n; tot+=m, off+=m, dst+=m){
  101417:	01 f3                	add    %esi,%ebx
    bp = bread(ip->dev, bmap(ip, off/BSIZE));
    m = min(n - tot, BSIZE - off%BSIZE);
    memmove(dst, bp->data + off%BSIZE, m);
  101419:	8d 44 11 18          	lea    0x18(%ecx,%edx,1),%eax
  10141d:	89 44 24 04          	mov    %eax,0x4(%esp)
  101421:	8b 45 e8             	mov    -0x18(%ebp),%eax
  101424:	89 04 24             	mov    %eax,(%esp)
  101427:	e8 b4 2b 00 00       	call   103fe0 <memmove>
    brelse(bp);
  10142c:	8b 4d f0             	mov    -0x10(%ebp),%ecx
  10142f:	89 0c 24             	mov    %ecx,(%esp)
  101432:	e8 c9 eb ff ff       	call   100000 <brelse>
  if(off > ip->size || off + n < off)
    return -1;
  if(off + n > ip->size)
    n = ip->size - off;

  for(tot=0; tot<n; tot+=m, off+=m, dst+=m){
  101437:	01 75 ec             	add    %esi,-0x14(%ebp)
  10143a:	8b 45 ec             	mov    -0x14(%ebp),%eax
  10143d:	01 75 e8             	add    %esi,-0x18(%ebp)
  101440:	39 45 e4             	cmp    %eax,-0x1c(%ebp)
  101443:	77 93                	ja     1013d8 <readi+0x98>
    bp = bread(ip->dev, bmap(ip, off/BSIZE));
    m = min(n - tot, BSIZE - off%BSIZE);
    memmove(dst, bp->data + off%BSIZE, m);
    brelse(bp);
  }
  return n;
  101445:	8b 45 e4             	mov    -0x1c(%ebp),%eax
  101448:	e9 27 ff ff ff       	jmp    101374 <readi+0x34>
  10144d:	8d 76 00             	lea    0x0(%esi),%esi

00101450 <iupdate>:
}

// Copy inode, which has changed, from memory to disk.
void
iupdate(struct inode *ip)
{
  101450:	55                   	push   %ebp
  101451:	89 e5                	mov    %esp,%ebp
  101453:	56                   	push   %esi
  101454:	53                   	push   %ebx
  101455:	83 ec 10             	sub    $0x10,%esp
  101458:	8b 5d 08             	mov    0x8(%ebp),%ebx
  struct buf *bp;
  struct dinode *dip;

  bp = bread(ip->dev, IBLOCK(ip->inum));
  10145b:	8b 43 04             	mov    0x4(%ebx),%eax
  10145e:	c1 e8 03             	shr    $0x3,%eax
  101461:	83 c0 02             	add    $0x2,%eax
  101464:	89 44 24 04          	mov    %eax,0x4(%esp)
  101468:	8b 03                	mov    (%ebx),%eax
  10146a:	89 04 24             	mov    %eax,(%esp)
  10146d:	e8 4e ec ff ff       	call   1000c0 <bread>
  101472:	89 c6                	mov    %eax,%esi
  dip = (struct dinode*)bp->data + ip->inum%IPB;
  101474:	8b 43 04             	mov    0x4(%ebx),%eax
  101477:	83 e0 07             	and    $0x7,%eax
  10147a:	c1 e0 06             	shl    $0x6,%eax
  10147d:	8d 54 06 18          	lea    0x18(%esi,%eax,1),%edx
  dip->type = ip->type;
  101481:	0f b7 43 10          	movzwl 0x10(%ebx),%eax
  101485:	66 89 02             	mov    %ax,(%edx)
  dip->major = ip->major;
  101488:	0f b7 43 12          	movzwl 0x12(%ebx),%eax
  10148c:	66 89 42 02          	mov    %ax,0x2(%edx)
  dip->minor = ip->minor;
  101490:	0f b7 43 14          	movzwl 0x14(%ebx),%eax
  101494:	66 89 42 04          	mov    %ax,0x4(%edx)
  dip->nlink = ip->nlink;
  101498:	0f b7 43 16          	movzwl 0x16(%ebx),%eax
  10149c:	66 89 42 06          	mov    %ax,0x6(%edx)
  dip->size = ip->size;
  1014a0:	8b 43 18             	mov    0x18(%ebx),%eax
  memmove(dip->addrs, ip->addrs, sizeof(ip->addrs));
  1014a3:	83 c3 1c             	add    $0x1c,%ebx
  dip = (struct dinode*)bp->data + ip->inum%IPB;
  dip->type = ip->type;
  dip->major = ip->major;
  dip->minor = ip->minor;
  dip->nlink = ip->nlink;
  dip->size = ip->size;
  1014a6:	89 42 08             	mov    %eax,0x8(%edx)
  memmove(dip->addrs, ip->addrs, sizeof(ip->addrs));
  1014a9:	83 c2 0c             	add    $0xc,%edx
  1014ac:	89 5c 24 04          	mov    %ebx,0x4(%esp)
  1014b0:	89 14 24             	mov    %edx,(%esp)
  1014b3:	c7 44 24 08 34 00 00 	movl   $0x34,0x8(%esp)
  1014ba:	00 
  1014bb:	e8 20 2b 00 00       	call   103fe0 <memmove>
  bwrite(bp, "iupdate");
  1014c0:	89 34 24             	mov    %esi,(%esp)
  1014c3:	c7 44 24 04 47 60 10 	movl   $0x106047,0x4(%esp)
  1014ca:	00 
  1014cb:	e8 a0 eb ff ff       	call   100070 <bwrite>
  brelse(bp);
  1014d0:	89 75 08             	mov    %esi,0x8(%ebp)
}
  1014d3:	83 c4 10             	add    $0x10,%esp
  1014d6:	5b                   	pop    %ebx
  1014d7:	5e                   	pop    %esi
  1014d8:	5d                   	pop    %ebp
  dip->minor = ip->minor;
  dip->nlink = ip->nlink;
  dip->size = ip->size;
  memmove(dip->addrs, ip->addrs, sizeof(ip->addrs));
  bwrite(bp, "iupdate");
  brelse(bp);
  1014d9:	e9 22 eb ff ff       	jmp    100000 <brelse>
  1014de:	66 90                	xchg   %ax,%ax

001014e0 <writei>:
}

// Write data to inode.
int
writei(struct inode *ip, char *src, uint off, uint n)
{
  1014e0:	55                   	push   %ebp
  1014e1:	89 e5                	mov    %esp,%ebp
  1014e3:	83 ec 28             	sub    $0x28,%esp
  1014e6:	89 5d f4             	mov    %ebx,-0xc(%ebp)
  1014e9:	8b 45 0c             	mov    0xc(%ebp),%eax
  1014ec:	8b 5d 08             	mov    0x8(%ebp),%ebx
  1014ef:	8b 4d 14             	mov    0x14(%ebp),%ecx
  1014f2:	89 75 f8             	mov    %esi,-0x8(%ebp)
  1014f5:	8b 75 10             	mov    0x10(%ebp),%esi
  1014f8:	89 7d fc             	mov    %edi,-0x4(%ebp)
  1014fb:	89 45 e8             	mov    %eax,-0x18(%ebp)
  1014fe:	89 4d e4             	mov    %ecx,-0x1c(%ebp)
  uint tot, m;
  struct buf *bp;

  if(ip->type == T_DEV){
  101501:	66 83 7b 10 03       	cmpw   $0x3,0x10(%ebx)
  101506:	74 18                	je     101520 <writei+0x40>
    if(ip->major < 0 || ip->major >= NDEV || !devsw[ip->major].write)
      return -1;
    return devsw[ip->major].write(ip, src, n);
  }

  if(off > ip->size || off + n < off)
  101508:	39 73 18             	cmp    %esi,0x18(%ebx)
  10150b:	73 43                	jae    101550 <writei+0x70>

  if(n > 0 && off > ip->size){
    ip->size = off;
    iupdate(ip);
  }
  return n;
  10150d:	b8 ff ff ff ff       	mov    $0xffffffff,%eax
}
  101512:	8b 5d f4             	mov    -0xc(%ebp),%ebx
  101515:	8b 75 f8             	mov    -0x8(%ebp),%esi
  101518:	8b 7d fc             	mov    -0x4(%ebp),%edi
  10151b:	89 ec                	mov    %ebp,%esp
  10151d:	5d                   	pop    %ebp
  10151e:	c3                   	ret    
  10151f:	90                   	nop    
{
  uint tot, m;
  struct buf *bp;

  if(ip->type == T_DEV){
    if(ip->major < 0 || ip->major >= NDEV || !devsw[ip->major].write)
  101520:	0f b7 43 12          	movzwl 0x12(%ebx),%eax
  101524:	66 83 f8 09          	cmp    $0x9,%ax
  101528:	77 e3                	ja     10150d <writei+0x2d>
  10152a:	98                   	cwtl   
  10152b:	8b 0c c5 c4 a1 10 00 	mov    0x10a1c4(,%eax,8),%ecx
  101532:	85 c9                	test   %ecx,%ecx
  101534:	74 d7                	je     10150d <writei+0x2d>
      return -1;
    return devsw[ip->major].write(ip, src, n);
  101536:	8b 45 e4             	mov    -0x1c(%ebp),%eax
  if(n > 0 && off > ip->size){
    ip->size = off;
    iupdate(ip);
  }
  return n;
}
  101539:	8b 5d f4             	mov    -0xc(%ebp),%ebx
  10153c:	8b 75 f8             	mov    -0x8(%ebp),%esi
  10153f:	8b 7d fc             	mov    -0x4(%ebp),%edi
  struct buf *bp;

  if(ip->type == T_DEV){
    if(ip->major < 0 || ip->major >= NDEV || !devsw[ip->major].write)
      return -1;
    return devsw[ip->major].write(ip, src, n);
  101542:	89 45 10             	mov    %eax,0x10(%ebp)
  if(n > 0 && off > ip->size){
    ip->size = off;
    iupdate(ip);
  }
  return n;
}
  101545:	89 ec                	mov    %ebp,%esp
  101547:	5d                   	pop    %ebp
  struct buf *bp;

  if(ip->type == T_DEV){
    if(ip->major < 0 || ip->major >= NDEV || !devsw[ip->major].write)
      return -1;
    return devsw[ip->major].write(ip, src, n);
  101548:	ff e1                	jmp    *%ecx
  10154a:	8d b6 00 00 00 00    	lea    0x0(%esi),%esi
  }

  if(off > ip->size || off + n < off)
  101550:	8b 45 e4             	mov    -0x1c(%ebp),%eax
  101553:	01 f0                	add    %esi,%eax
  101555:	72 b6                	jb     10150d <writei+0x2d>
    return -1;
  if(off + n > MAXFILE*BSIZE)
  101557:	3d 00 18 01 00       	cmp    $0x11800,%eax
  10155c:	76 0a                	jbe    101568 <writei+0x88>
    n = MAXFILE*BSIZE - off;
  10155e:	c7 45 e4 00 18 01 00 	movl   $0x11800,-0x1c(%ebp)
  101565:	29 75 e4             	sub    %esi,-0x1c(%ebp)

  for(tot=0; tot<n; tot+=m, off+=m, src+=m){
  101568:	8b 4d e4             	mov    -0x1c(%ebp),%ecx
  10156b:	85 c9                	test   %ecx,%ecx
  10156d:	0f 84 92 00 00 00    	je     101605 <writei+0x125>
  101573:	c7 45 ec 00 00 00 00 	movl   $0x0,-0x14(%ebp)
  10157a:	8d b6 00 00 00 00    	lea    0x0(%esi),%esi
    bp = bread(ip->dev, bmap(ip, off/BSIZE));
  101580:	89 f2                	mov    %esi,%edx
  101582:	89 d8                	mov    %ebx,%eax
  101584:	c1 ea 09             	shr    $0x9,%edx
    m = min(n - tot, BSIZE - off%BSIZE);
  101587:	bf 00 02 00 00       	mov    $0x200,%edi
    return -1;
  if(off + n > MAXFILE*BSIZE)
    n = MAXFILE*BSIZE - off;

  for(tot=0; tot<n; tot+=m, off+=m, src+=m){
    bp = bread(ip->dev, bmap(ip, off/BSIZE));
  10158c:	e8 ff fc ff ff       	call   101290 <bmap>
  101591:	89 44 24 04          	mov    %eax,0x4(%esp)
  101595:	8b 03                	mov    (%ebx),%eax
  101597:	89 04 24             	mov    %eax,(%esp)
  10159a:	e8 21 eb ff ff       	call   1000c0 <bread>
    m = min(n - tot, BSIZE - off%BSIZE);
  10159f:	89 f2                	mov    %esi,%edx
  1015a1:	81 e2 ff 01 00 00    	and    $0x1ff,%edx
  1015a7:	29 d7                	sub    %edx,%edi
    return -1;
  if(off + n > MAXFILE*BSIZE)
    n = MAXFILE*BSIZE - off;

  for(tot=0; tot<n; tot+=m, off+=m, src+=m){
    bp = bread(ip->dev, bmap(ip, off/BSIZE));
  1015a9:	89 45 f0             	mov    %eax,-0x10(%ebp)
    m = min(n - tot, BSIZE - off%BSIZE);
  1015ac:	8b 45 e4             	mov    -0x1c(%ebp),%eax
  1015af:	2b 45 ec             	sub    -0x14(%ebp),%eax
  1015b2:	39 c7                	cmp    %eax,%edi
  1015b4:	76 02                	jbe    1015b8 <writei+0xd8>
  1015b6:	89 c7                	mov    %eax,%edi
    memmove(bp->data + off%BSIZE, src, m);
  1015b8:	89 7c 24 08          	mov    %edi,0x8(%esp)
  1015bc:	8b 4d e8             	mov    -0x18(%ebp),%ecx
  if(off > ip->size || off + n < off)
    return -1;
  if(off + n > MAXFILE*BSIZE)
    n = MAXFILE*BSIZE - off;

  for(tot=0; tot<n; tot+=m, off+=m, src+=m){
  1015bf:	01 fe                	add    %edi,%esi
    bp = bread(ip->dev, bmap(ip, off/BSIZE));
    m = min(n - tot, BSIZE - off%BSIZE);
    memmove(bp->data + off%BSIZE, src, m);
  1015c1:	89 4c 24 04          	mov    %ecx,0x4(%esp)
  1015c5:	8b 4d f0             	mov    -0x10(%ebp),%ecx
  1015c8:	8d 44 11 18          	lea    0x18(%ecx,%edx,1),%eax
  1015cc:	89 04 24             	mov    %eax,(%esp)
  1015cf:	e8 0c 2a 00 00       	call   103fe0 <memmove>
    bwrite(bp, "writei");
  1015d4:	c7 44 24 04 8e 66 10 	movl   $0x10668e,0x4(%esp)
  1015db:	00 
  1015dc:	8b 45 f0             	mov    -0x10(%ebp),%eax
  1015df:	89 04 24             	mov    %eax,(%esp)
  1015e2:	e8 89 ea ff ff       	call   100070 <bwrite>
    brelse(bp);
  1015e7:	8b 4d f0             	mov    -0x10(%ebp),%ecx
  1015ea:	89 0c 24             	mov    %ecx,(%esp)
  1015ed:	e8 0e ea ff ff       	call   100000 <brelse>
  if(off > ip->size || off + n < off)
    return -1;
  if(off + n > MAXFILE*BSIZE)
    n = MAXFILE*BSIZE - off;

  for(tot=0; tot<n; tot+=m, off+=m, src+=m){
  1015f2:	01 7d ec             	add    %edi,-0x14(%ebp)
  1015f5:	8b 45 ec             	mov    -0x14(%ebp),%eax
  1015f8:	01 7d e8             	add    %edi,-0x18(%ebp)
  1015fb:	39 45 e4             	cmp    %eax,-0x1c(%ebp)
  1015fe:	77 80                	ja     101580 <writei+0xa0>
    memmove(bp->data + off%BSIZE, src, m);
    bwrite(bp, "writei");
    brelse(bp);
  }

  if(n > 0 && off > ip->size){
  101600:	3b 73 18             	cmp    0x18(%ebx),%esi
  101603:	77 08                	ja     10160d <writei+0x12d>
    ip->size = off;
    iupdate(ip);
  }
  return n;
  101605:	8b 45 e4             	mov    -0x1c(%ebp),%eax
  101608:	e9 05 ff ff ff       	jmp    101512 <writei+0x32>
    bwrite(bp, "writei");
    brelse(bp);
  }

  if(n > 0 && off > ip->size){
    ip->size = off;
  10160d:	89 73 18             	mov    %esi,0x18(%ebx)
    iupdate(ip);
  101610:	89 1c 24             	mov    %ebx,(%esp)
  101613:	e8 38 fe ff ff       	call   101450 <iupdate>
  101618:	eb eb                	jmp    101605 <writei+0x125>
  10161a:	8d b6 00 00 00 00    	lea    0x0(%esi),%esi

00101620 <namecmp>:

// Directories

int
namecmp(const char *s, const char *t)
{
  101620:	55                   	push   %ebp
  101621:	89 e5                	mov    %esp,%ebp
  101623:	83 ec 18             	sub    $0x18,%esp
  return strncmp(s, t, DIRSIZ);
  101626:	8b 45 0c             	mov    0xc(%ebp),%eax
  101629:	c7 44 24 08 0e 00 00 	movl   $0xe,0x8(%esp)
  101630:	00 
  101631:	89 44 24 04          	mov    %eax,0x4(%esp)
  101635:	8b 45 08             	mov    0x8(%ebp),%eax
  101638:	89 04 24             	mov    %eax,(%esp)
  10163b:	e8 10 2a 00 00       	call   104050 <strncmp>
}
  101640:	c9                   	leave  
  101641:	c3                   	ret    
  101642:	8d b4 26 00 00 00 00 	lea    0x0(%esi,%eiz,1),%esi
  101649:	8d bc 27 00 00 00 00 	lea    0x0(%edi,%eiz,1),%edi

00101650 <dirlookup>:
// Look for a directory entry in a directory.
// If found, set *poff to byte offset of entry.
// Caller must have already locked dp.
struct inode*
dirlookup(struct inode *dp, char *name, uint *poff)
{
  101650:	55                   	push   %ebp
  101651:	89 e5                	mov    %esp,%ebp
  101653:	57                   	push   %edi
  101654:	56                   	push   %esi
  101655:	53                   	push   %ebx
  101656:	83 ec 2c             	sub    $0x2c,%esp
  101659:	8b 45 08             	mov    0x8(%ebp),%eax
  10165c:	8b 55 0c             	mov    0xc(%ebp),%edx
  10165f:	8b 4d 10             	mov    0x10(%ebp),%ecx
  101662:	89 45 e8             	mov    %eax,-0x18(%ebp)
  101665:	89 55 e4             	mov    %edx,-0x1c(%ebp)
  101668:	89 4d e0             	mov    %ecx,-0x20(%ebp)
  uint off, inum;
  struct buf *bp;
  struct dirent *de;

  if(dp->type != T_DIR)
  10166b:	66 83 78 10 01       	cmpw   $0x1,0x10(%eax)
  101670:	0f 85 d2 00 00 00    	jne    101748 <dirlookup+0xf8>
    panic("dirlookup not DIR");
  101676:	c7 45 f0 00 00 00 00 	movl   $0x0,-0x10(%ebp)

  for(off = 0; off < dp->size; off += BSIZE){
  10167d:	8b 78 18             	mov    0x18(%eax),%edi
  101680:	85 ff                	test   %edi,%edi
  101682:	0f 84 b6 00 00 00    	je     10173e <dirlookup+0xee>
    bp = bread(dp->dev, bmap(dp, off / BSIZE));
  101688:	8b 55 f0             	mov    -0x10(%ebp),%edx
  10168b:	8b 45 e8             	mov    -0x18(%ebp),%eax
  10168e:	c1 ea 09             	shr    $0x9,%edx
  101691:	e8 fa fb ff ff       	call   101290 <bmap>
  101696:	89 44 24 04          	mov    %eax,0x4(%esp)
  10169a:	8b 55 e8             	mov    -0x18(%ebp),%edx
  10169d:	8b 02                	mov    (%edx),%eax
  10169f:	89 04 24             	mov    %eax,(%esp)
  1016a2:	e8 19 ea ff ff       	call   1000c0 <bread>
    for(de = (struct dirent*)bp->data;
  1016a7:	8d 48 18             	lea    0x18(%eax),%ecx

  if(dp->type != T_DIR)
    panic("dirlookup not DIR");

  for(off = 0; off < dp->size; off += BSIZE){
    bp = bread(dp->dev, bmap(dp, off / BSIZE));
  1016aa:	89 c7                	mov    %eax,%edi
    for(de = (struct dirent*)bp->data;
  1016ac:	89 4d ec             	mov    %ecx,-0x14(%ebp)
  1016af:	89 cb                	mov    %ecx,%ebx
        de < (struct dirent*)(bp->data + BSIZE);
  1016b1:	8d b0 18 02 00 00    	lea    0x218(%eax),%esi
  1016b7:	eb 0e                	jmp    1016c7 <dirlookup+0x77>
  1016b9:	8d b4 26 00 00 00 00 	lea    0x0(%esi,%eiz,1),%esi
        de++){
  1016c0:	83 c3 10             	add    $0x10,%ebx
    panic("dirlookup not DIR");

  for(off = 0; off < dp->size; off += BSIZE){
    bp = bread(dp->dev, bmap(dp, off / BSIZE));
    for(de = (struct dirent*)bp->data;
        de < (struct dirent*)(bp->data + BSIZE);
  1016c3:	39 f3                	cmp    %esi,%ebx
  1016c5:	74 59                	je     101720 <dirlookup+0xd0>
        de++){
      if(de->inum == 0)
  1016c7:	66 83 3b 00          	cmpw   $0x0,(%ebx)
  1016cb:	74 f3                	je     1016c0 <dirlookup+0x70>
// Directories

int
namecmp(const char *s, const char *t)
{
  return strncmp(s, t, DIRSIZ);
  1016cd:	8d 43 02             	lea    0x2(%ebx),%eax
  1016d0:	c7 44 24 08 0e 00 00 	movl   $0xe,0x8(%esp)
  1016d7:	00 
  1016d8:	89 44 24 04          	mov    %eax,0x4(%esp)
  1016dc:	8b 45 e4             	mov    -0x1c(%ebp),%eax
  1016df:	89 04 24             	mov    %eax,(%esp)
  1016e2:	e8 69 29 00 00       	call   104050 <strncmp>
    for(de = (struct dirent*)bp->data;
        de < (struct dirent*)(bp->data + BSIZE);
        de++){
      if(de->inum == 0)
        continue;
      if(namecmp(name, de->name) == 0){
  1016e7:	85 c0                	test   %eax,%eax
  1016e9:	75 d5                	jne    1016c0 <dirlookup+0x70>
        // entry matches path element
        if(poff)
  1016eb:	8b 75 e0             	mov    -0x20(%ebp),%esi
  1016ee:	85 f6                	test   %esi,%esi
  1016f0:	74 0e                	je     101700 <dirlookup+0xb0>
          *poff = off + (uchar*)de - bp->data;
  1016f2:	8b 55 f0             	mov    -0x10(%ebp),%edx
  1016f5:	8b 4d e0             	mov    -0x20(%ebp),%ecx
  1016f8:	8d 04 13             	lea    (%ebx,%edx,1),%eax
  1016fb:	2b 45 ec             	sub    -0x14(%ebp),%eax
  1016fe:	89 01                	mov    %eax,(%ecx)
        inum = de->inum;
  101700:	0f b7 1b             	movzwl (%ebx),%ebx
        brelse(bp);
  101703:	89 3c 24             	mov    %edi,(%esp)
  101706:	e8 f5 e8 ff ff       	call   100000 <brelse>
        return iget(dp->dev, inum);
  10170b:	8b 4d e8             	mov    -0x18(%ebp),%ecx
  10170e:	89 da                	mov    %ebx,%edx
  101710:	8b 01                	mov    (%ecx),%eax
      }
    }
    brelse(bp);
  }
  return 0;
}
  101712:	83 c4 2c             	add    $0x2c,%esp
  101715:	5b                   	pop    %ebx
  101716:	5e                   	pop    %esi
  101717:	5f                   	pop    %edi
  101718:	5d                   	pop    %ebp
        // entry matches path element
        if(poff)
          *poff = off + (uchar*)de - bp->data;
        inum = de->inum;
        brelse(bp);
        return iget(dp->dev, inum);
  101719:	e9 82 f9 ff ff       	jmp    1010a0 <iget>
  10171e:	66 90                	xchg   %ax,%ax
      }
    }
    brelse(bp);
  101720:	89 3c 24             	mov    %edi,(%esp)
  101723:	e8 d8 e8 ff ff       	call   100000 <brelse>
  struct dirent *de;

  if(dp->type != T_DIR)
    panic("dirlookup not DIR");

  for(off = 0; off < dp->size; off += BSIZE){
  101728:	8b 45 e8             	mov    -0x18(%ebp),%eax
  10172b:	81 45 f0 00 02 00 00 	addl   $0x200,-0x10(%ebp)
  101732:	8b 55 f0             	mov    -0x10(%ebp),%edx
  101735:	39 50 18             	cmp    %edx,0x18(%eax)
  101738:	0f 87 4a ff ff ff    	ja     101688 <dirlookup+0x38>
      }
    }
    brelse(bp);
  }
  return 0;
}
  10173e:	83 c4 2c             	add    $0x2c,%esp
  101741:	31 c0                	xor    %eax,%eax
  101743:	5b                   	pop    %ebx
  101744:	5e                   	pop    %esi
  101745:	5f                   	pop    %edi
  101746:	5d                   	pop    %ebp
  101747:	c3                   	ret    
  uint off, inum;
  struct buf *bp;
  struct dirent *de;

  if(dp->type != T_DIR)
    panic("dirlookup not DIR");
  101748:	c7 04 24 4f 60 10 00 	movl   $0x10604f,(%esp)
  10174f:	e8 2c f1 ff ff       	call   100880 <panic>
  101754:	8d b6 00 00 00 00    	lea    0x0(%esi),%esi
  10175a:	8d bf 00 00 00 00    	lea    0x0(%edi),%edi

00101760 <iunlock>:
}

// Unlock the given inode.
void
iunlock(struct inode *ip)
{
  101760:	55                   	push   %ebp
  101761:	89 e5                	mov    %esp,%ebp
  101763:	53                   	push   %ebx
  101764:	83 ec 04             	sub    $0x4,%esp
  101767:	8b 5d 08             	mov    0x8(%ebp),%ebx
  if(ip == 0 || !(ip->flags & I_BUSY) || ip->ref < 1)
  10176a:	85 db                	test   %ebx,%ebx
  10176c:	74 3a                	je     1017a8 <iunlock+0x48>
  10176e:	f6 43 0c 01          	testb  $0x1,0xc(%ebx)
  101772:	74 34                	je     1017a8 <iunlock+0x48>
  101774:	8b 43 08             	mov    0x8(%ebx),%eax
  101777:	85 c0                	test   %eax,%eax
  101779:	7e 2d                	jle    1017a8 <iunlock+0x48>
    panic("iunlock");

  acquire(&icache.lock);
  10177b:	c7 04 24 20 a2 10 00 	movl   $0x10a220,(%esp)
  101782:	e8 29 27 00 00       	call   103eb0 <acquire>
  ip->flags &= ~I_BUSY;
  101787:	83 63 0c fe          	andl   $0xfffffffe,0xc(%ebx)
  wakeup(ip);
  10178b:	89 1c 24             	mov    %ebx,(%esp)
  10178e:	e8 3d 1a 00 00       	call   1031d0 <wakeup>
  release(&icache.lock);
  101793:	c7 45 08 20 a2 10 00 	movl   $0x10a220,0x8(%ebp)
}
  10179a:	83 c4 04             	add    $0x4,%esp
  10179d:	5b                   	pop    %ebx
  10179e:	5d                   	pop    %ebp
    panic("iunlock");

  acquire(&icache.lock);
  ip->flags &= ~I_BUSY;
  wakeup(ip);
  release(&icache.lock);
  10179f:	e9 bc 26 00 00       	jmp    103e60 <release>
  1017a4:	8d 74 26 00          	lea    0x0(%esi,%eiz,1),%esi
// Unlock the given inode.
void
iunlock(struct inode *ip)
{
  if(ip == 0 || !(ip->flags & I_BUSY) || ip->ref < 1)
    panic("iunlock");
  1017a8:	c7 04 24 61 60 10 00 	movl   $0x106061,(%esp)
  1017af:	e8 cc f0 ff ff       	call   100880 <panic>
  1017b4:	8d b6 00 00 00 00    	lea    0x0(%esi),%esi
  1017ba:	8d bf 00 00 00 00    	lea    0x0(%edi),%edi

001017c0 <bfree>:
}

// Free a disk block.
static void
bfree(int dev, uint b)
{
  1017c0:	55                   	push   %ebp
  1017c1:	89 e5                	mov    %esp,%ebp
  1017c3:	57                   	push   %edi
  1017c4:	89 c7                	mov    %eax,%edi
  1017c6:	56                   	push   %esi
  1017c7:	89 d6                	mov    %edx,%esi
  1017c9:	53                   	push   %ebx
  1017ca:	83 ec 1c             	sub    $0x1c,%esp
static void
bzero(int dev, int bno)
{
  struct buf *bp;
  
  bp = bread(dev, bno);
  1017cd:	89 54 24 04          	mov    %edx,0x4(%esp)
  1017d1:	89 04 24             	mov    %eax,(%esp)
  1017d4:	e8 e7 e8 ff ff       	call   1000c0 <bread>
  memset(bp->data, 0, BSIZE);
  1017d9:	c7 44 24 08 00 02 00 	movl   $0x200,0x8(%esp)
  1017e0:	00 
  1017e1:	c7 44 24 04 00 00 00 	movl   $0x0,0x4(%esp)
  1017e8:	00 
static void
bzero(int dev, int bno)
{
  struct buf *bp;
  
  bp = bread(dev, bno);
  1017e9:	89 c3                	mov    %eax,%ebx
  memset(bp->data, 0, BSIZE);
  1017eb:	8d 40 18             	lea    0x18(%eax),%eax
  1017ee:	89 04 24             	mov    %eax,(%esp)
  1017f1:	e8 5a 27 00 00       	call   103f50 <memset>
  bwrite(bp, "bzero");
  1017f6:	89 1c 24             	mov    %ebx,(%esp)
  1017f9:	c7 44 24 04 69 60 10 	movl   $0x106069,0x4(%esp)
  101800:	00 
  101801:	e8 6a e8 ff ff       	call   100070 <bwrite>
  brelse(bp);
  101806:	89 1c 24             	mov    %ebx,(%esp)
  101809:	e8 f2 e7 ff ff       	call   100000 <brelse>
  struct superblock sb;
  int bi, m;

  bzero(dev, b);

  readsb(dev, &sb);
  10180e:	89 f8                	mov    %edi,%eax
  101810:	8d 55 e8             	lea    -0x18(%ebp),%edx
  101813:	e8 58 f9 ff ff       	call   101170 <readsb>
  bp = bread(dev, BBLOCK(b, sb.ninodes));
  101818:	8b 45 f0             	mov    -0x10(%ebp),%eax
  10181b:	89 f2                	mov    %esi,%edx
  10181d:	c1 ea 0c             	shr    $0xc,%edx
  101820:	89 3c 24             	mov    %edi,(%esp)
  bi = b % BPB;
  101823:	89 f7                	mov    %esi,%edi
  m = 1 << (bi % 8);
  101825:	83 e6 07             	and    $0x7,%esi

  bzero(dev, b);

  readsb(dev, &sb);
  bp = bread(dev, BBLOCK(b, sb.ninodes));
  bi = b % BPB;
  101828:	81 e7 ff 0f 00 00    	and    $0xfff,%edi
  int bi, m;

  bzero(dev, b);

  readsb(dev, &sb);
  bp = bread(dev, BBLOCK(b, sb.ninodes));
  10182e:	c1 e8 03             	shr    $0x3,%eax
  101831:	8d 44 10 03          	lea    0x3(%eax,%edx,1),%eax
  101835:	89 44 24 04          	mov    %eax,0x4(%esp)
  bi = b % BPB;
  m = 1 << (bi % 8);
  if((bp->data[bi/8] & m) == 0)
  101839:	c1 ff 03             	sar    $0x3,%edi
  int bi, m;

  bzero(dev, b);

  readsb(dev, &sb);
  bp = bread(dev, BBLOCK(b, sb.ninodes));
  10183c:	e8 7f e8 ff ff       	call   1000c0 <bread>
  bi = b % BPB;
  m = 1 << (bi % 8);
  101841:	89 f1                	mov    %esi,%ecx
  101843:	ba 01 00 00 00       	mov    $0x1,%edx
  101848:	d3 e2                	shl    %cl,%edx
  if((bp->data[bi/8] & m) == 0)
  10184a:	0f b6 74 38 18       	movzbl 0x18(%eax,%edi,1),%esi
  int bi, m;

  bzero(dev, b);

  readsb(dev, &sb);
  bp = bread(dev, BBLOCK(b, sb.ninodes));
  10184f:	89 c3                	mov    %eax,%ebx
  bi = b % BPB;
  m = 1 << (bi % 8);
  if((bp->data[bi/8] & m) == 0)
  101851:	89 f1                	mov    %esi,%ecx
  101853:	0f b6 c1             	movzbl %cl,%eax
  101856:	85 d0                	test   %edx,%eax
  101858:	74 2a                	je     101884 <bfree+0xc4>
    panic("freeing free block");
  bp->data[bi/8] &= ~m;  // Mark block free on disk.
  10185a:	89 d0                	mov    %edx,%eax
  10185c:	f7 d0                	not    %eax
  10185e:	21 f0                	and    %esi,%eax
  101860:	88 44 3b 18          	mov    %al,0x18(%ebx,%edi,1)
  bwrite(bp, "bfree");
  101864:	89 1c 24             	mov    %ebx,(%esp)
  101867:	c7 44 24 04 82 60 10 	movl   $0x106082,0x4(%esp)
  10186e:	00 
  10186f:	e8 fc e7 ff ff       	call   100070 <bwrite>
  brelse(bp);
  101874:	89 1c 24             	mov    %ebx,(%esp)
  101877:	e8 84 e7 ff ff       	call   100000 <brelse>
}
  10187c:	83 c4 1c             	add    $0x1c,%esp
  10187f:	5b                   	pop    %ebx
  101880:	5e                   	pop    %esi
  101881:	5f                   	pop    %edi
  101882:	5d                   	pop    %ebp
  101883:	c3                   	ret    
  readsb(dev, &sb);
  bp = bread(dev, BBLOCK(b, sb.ninodes));
  bi = b % BPB;
  m = 1 << (bi % 8);
  if((bp->data[bi/8] & m) == 0)
    panic("freeing free block");
  101884:	c7 04 24 6f 60 10 00 	movl   $0x10606f,(%esp)
  10188b:	e8 f0 ef ff ff       	call   100880 <panic>

00101890 <iput>:
}

// Caller holds reference to unlocked ip.  Drop reference.
void
iput(struct inode *ip)
{
  101890:	55                   	push   %ebp
  101891:	89 e5                	mov    %esp,%ebp
  101893:	57                   	push   %edi
  101894:	56                   	push   %esi
  101895:	53                   	push   %ebx
  101896:	83 ec 0c             	sub    $0xc,%esp
  101899:	8b 75 08             	mov    0x8(%ebp),%esi
  acquire(&icache.lock);
  10189c:	c7 04 24 20 a2 10 00 	movl   $0x10a220,(%esp)
  1018a3:	e8 08 26 00 00       	call   103eb0 <acquire>
  if(ip->ref == 1 && (ip->flags & I_VALID) && ip->nlink == 0){
  1018a8:	8b 46 08             	mov    0x8(%esi),%eax
  1018ab:	83 f8 01             	cmp    $0x1,%eax
  1018ae:	0f 85 ac 00 00 00    	jne    101960 <iput+0xd0>
  1018b4:	8b 56 0c             	mov    0xc(%esi),%edx
  1018b7:	f6 c2 02             	test   $0x2,%dl
  1018ba:	0f 84 a0 00 00 00    	je     101960 <iput+0xd0>
  1018c0:	66 83 7e 16 00       	cmpw   $0x0,0x16(%esi)
  1018c5:	0f 85 95 00 00 00    	jne    101960 <iput+0xd0>
    // inode is no longer used: truncate and free inode.
    if(ip->flags & I_BUSY)
  1018cb:	f6 c2 01             	test   $0x1,%dl
  1018ce:	66 90                	xchg   %ax,%ax
  1018d0:	0f 85 13 01 00 00    	jne    1019e9 <iput+0x159>
      panic("iput busy");
    ip->flags |= I_BUSY;
  1018d6:	83 ca 01             	or     $0x1,%edx
    release(&icache.lock);
  1018d9:	89 f3                	mov    %esi,%ebx
  acquire(&icache.lock);
  if(ip->ref == 1 && (ip->flags & I_VALID) && ip->nlink == 0){
    // inode is no longer used: truncate and free inode.
    if(ip->flags & I_BUSY)
      panic("iput busy");
    ip->flags |= I_BUSY;
  1018db:	89 56 0c             	mov    %edx,0xc(%esi)
  1018de:	8d 7e 30             	lea    0x30(%esi),%edi
    release(&icache.lock);
  1018e1:	c7 04 24 20 a2 10 00 	movl   $0x10a220,(%esp)
  1018e8:	e8 73 25 00 00       	call   103e60 <release>
  1018ed:	eb 08                	jmp    1018f7 <iput+0x67>
  1018ef:	90                   	nop    
  uint *a;

  for(i = 0; i < NDIRECT; i++){
    if(ip->addrs[i]){
      bfree(ip->dev, ip->addrs[i]);
      ip->addrs[i] = 0;
  1018f0:	83 c3 04             	add    $0x4,%ebx
{
  int i, j;
  struct buf *bp;
  uint *a;

  for(i = 0; i < NDIRECT; i++){
  1018f3:	39 fb                	cmp    %edi,%ebx
  1018f5:	74 20                	je     101917 <iput+0x87>
    if(ip->addrs[i]){
  1018f7:	8b 53 1c             	mov    0x1c(%ebx),%edx
  1018fa:	85 d2                	test   %edx,%edx
  1018fc:	8d 74 26 00          	lea    0x0(%esi,%eiz,1),%esi
  101900:	74 ee                	je     1018f0 <iput+0x60>
      bfree(ip->dev, ip->addrs[i]);
  101902:	8b 06                	mov    (%esi),%eax
  101904:	e8 b7 fe ff ff       	call   1017c0 <bfree>
      ip->addrs[i] = 0;
  101909:	c7 43 1c 00 00 00 00 	movl   $0x0,0x1c(%ebx)
  101910:	83 c3 04             	add    $0x4,%ebx
{
  int i, j;
  struct buf *bp;
  uint *a;

  for(i = 0; i < NDIRECT; i++){
  101913:	39 fb                	cmp    %edi,%ebx
  101915:	75 e0                	jne    1018f7 <iput+0x67>
      bfree(ip->dev, ip->addrs[i]);
      ip->addrs[i] = 0;
    }
  }
  
  if(ip->addrs[NDIRECT]){
  101917:	8b 46 4c             	mov    0x4c(%esi),%eax
  10191a:	85 c0                	test   %eax,%eax
  10191c:	75 62                	jne    101980 <iput+0xf0>
    brelse(bp);
    bfree(ip->dev, ip->addrs[NDIRECT]);
    ip->addrs[NDIRECT] = 0;
  }

  ip->size = 0;
  10191e:	c7 46 18 00 00 00 00 	movl   $0x0,0x18(%esi)
  iupdate(ip);
  101925:	89 34 24             	mov    %esi,(%esp)
  101928:	e8 23 fb ff ff       	call   101450 <iupdate>
    if(ip->flags & I_BUSY)
      panic("iput busy");
    ip->flags |= I_BUSY;
    release(&icache.lock);
    itrunc(ip);
    ip->type = 0;
  10192d:	66 c7 46 10 00 00    	movw   $0x0,0x10(%esi)
    iupdate(ip);
  101933:	89 34 24             	mov    %esi,(%esp)
  101936:	e8 15 fb ff ff       	call   101450 <iupdate>
    acquire(&icache.lock);
  10193b:	c7 04 24 20 a2 10 00 	movl   $0x10a220,(%esp)
  101942:	e8 69 25 00 00       	call   103eb0 <acquire>
    ip->flags = 0;
  101947:	c7 46 0c 00 00 00 00 	movl   $0x0,0xc(%esi)
    wakeup(ip);
  10194e:	89 34 24             	mov    %esi,(%esp)
  101951:	e8 7a 18 00 00       	call   1031d0 <wakeup>
  101956:	8b 46 08             	mov    0x8(%esi),%eax
  101959:	8d b4 26 00 00 00 00 	lea    0x0(%esi,%eiz,1),%esi
  }
  ip->ref--;
  101960:	83 e8 01             	sub    $0x1,%eax
  101963:	89 46 08             	mov    %eax,0x8(%esi)
  release(&icache.lock);
  101966:	c7 45 08 20 a2 10 00 	movl   $0x10a220,0x8(%ebp)
}
  10196d:	83 c4 0c             	add    $0xc,%esp
  101970:	5b                   	pop    %ebx
  101971:	5e                   	pop    %esi
  101972:	5f                   	pop    %edi
  101973:	5d                   	pop    %ebp
    acquire(&icache.lock);
    ip->flags = 0;
    wakeup(ip);
  }
  ip->ref--;
  release(&icache.lock);
  101974:	e9 e7 24 00 00       	jmp    103e60 <release>
  101979:	8d b4 26 00 00 00 00 	lea    0x0(%esi,%eiz,1),%esi
      ip->addrs[i] = 0;
    }
  }
  
  if(ip->addrs[NDIRECT]){
    bp = bread(ip->dev, ip->addrs[NDIRECT]);
  101980:	89 44 24 04          	mov    %eax,0x4(%esp)
  101984:	8b 06                	mov    (%esi),%eax
    a = (uint*)bp->data;
  101986:	31 db                	xor    %ebx,%ebx
      ip->addrs[i] = 0;
    }
  }
  
  if(ip->addrs[NDIRECT]){
    bp = bread(ip->dev, ip->addrs[NDIRECT]);
  101988:	89 04 24             	mov    %eax,(%esp)
  10198b:	e8 30 e7 ff ff       	call   1000c0 <bread>
    a = (uint*)bp->data;
  101990:	89 c7                	mov    %eax,%edi
      ip->addrs[i] = 0;
    }
  }
  
  if(ip->addrs[NDIRECT]){
    bp = bread(ip->dev, ip->addrs[NDIRECT]);
  101992:	89 45 f0             	mov    %eax,-0x10(%ebp)
    a = (uint*)bp->data;
  101995:	83 c7 18             	add    $0x18,%edi
  101998:	31 c0                	xor    %eax,%eax
  10199a:	eb 11                	jmp    1019ad <iput+0x11d>
  10199c:	8d 74 26 00          	lea    0x0(%esi,%eiz,1),%esi
    for(j = 0; j < NINDIRECT; j++){
  1019a0:	83 c3 01             	add    $0x1,%ebx
  1019a3:	81 fb 80 00 00 00    	cmp    $0x80,%ebx
  1019a9:	89 d8                	mov    %ebx,%eax
  1019ab:	74 1b                	je     1019c8 <iput+0x138>
      if(a[j])
  1019ad:	8b 14 87             	mov    (%edi,%eax,4),%edx
  1019b0:	85 d2                	test   %edx,%edx
  1019b2:	74 ec                	je     1019a0 <iput+0x110>
        bfree(ip->dev, a[j]);
  1019b4:	8b 06                	mov    (%esi),%eax
  1019b6:	e8 05 fe ff ff       	call   1017c0 <bfree>
  1019bb:	90                   	nop    
  1019bc:	8d 74 26 00          	lea    0x0(%esi,%eiz,1),%esi
  1019c0:	eb de                	jmp    1019a0 <iput+0x110>
  1019c2:	8d b6 00 00 00 00    	lea    0x0(%esi),%esi
    }
    brelse(bp);
  1019c8:	8b 45 f0             	mov    -0x10(%ebp),%eax
  1019cb:	89 04 24             	mov    %eax,(%esp)
  1019ce:	e8 2d e6 ff ff       	call   100000 <brelse>
    bfree(ip->dev, ip->addrs[NDIRECT]);
  1019d3:	8b 56 4c             	mov    0x4c(%esi),%edx
  1019d6:	8b 06                	mov    (%esi),%eax
  1019d8:	e8 e3 fd ff ff       	call   1017c0 <bfree>
    ip->addrs[NDIRECT] = 0;
  1019dd:	c7 46 4c 00 00 00 00 	movl   $0x0,0x4c(%esi)
  1019e4:	e9 35 ff ff ff       	jmp    10191e <iput+0x8e>
{
  acquire(&icache.lock);
  if(ip->ref == 1 && (ip->flags & I_VALID) && ip->nlink == 0){
    // inode is no longer used: truncate and free inode.
    if(ip->flags & I_BUSY)
      panic("iput busy");
  1019e9:	c7 04 24 88 60 10 00 	movl   $0x106088,(%esp)
  1019f0:	e8 8b ee ff ff       	call   100880 <panic>
  1019f5:	8d 74 26 00          	lea    0x0(%esi,%eiz,1),%esi
  1019f9:	8d bc 27 00 00 00 00 	lea    0x0(%edi,%eiz,1),%edi

00101a00 <dirlink>:
}

// Write a new directory entry (name, inum) into the directory dp.
int
dirlink(struct inode *dp, char *name, uint inum)
{
  101a00:	55                   	push   %ebp
  101a01:	89 e5                	mov    %esp,%ebp
  101a03:	57                   	push   %edi
  101a04:	56                   	push   %esi
  101a05:	53                   	push   %ebx
  101a06:	83 ec 2c             	sub    $0x2c,%esp
  101a09:	8b 7d 08             	mov    0x8(%ebp),%edi
  int off;
  struct dirent de;
  struct inode *ip;

  // Check that name is not present.
  if((ip = dirlookup(dp, name, 0)) != 0){
  101a0c:	8b 45 0c             	mov    0xc(%ebp),%eax
  101a0f:	c7 44 24 08 00 00 00 	movl   $0x0,0x8(%esp)
  101a16:	00 
  101a17:	89 3c 24             	mov    %edi,(%esp)
  101a1a:	89 44 24 04          	mov    %eax,0x4(%esp)
  101a1e:	e8 2d fc ff ff       	call   101650 <dirlookup>
  101a23:	85 c0                	test   %eax,%eax
  101a25:	0f 85 98 00 00 00    	jne    101ac3 <dirlink+0xc3>
    iput(ip);
    return -1;
  }

  // Look for an empty dirent.
  for(off = 0; off < dp->size; off += sizeof(de)){
  101a2b:	8b 47 18             	mov    0x18(%edi),%eax
  101a2e:	85 c0                	test   %eax,%eax
  101a30:	0f 84 9c 00 00 00    	je     101ad2 <dirlink+0xd2>
  struct inode *ip;

  // Check that name is not present.
  if((ip = dirlookup(dp, name, 0)) != 0){
    iput(ip);
    return -1;
  101a36:	8d 75 e4             	lea    -0x1c(%ebp),%esi
  101a39:	31 db                	xor    %ebx,%ebx
  101a3b:	eb 0b                	jmp    101a48 <dirlink+0x48>
  101a3d:	8d 76 00             	lea    0x0(%esi),%esi
  }

  // Look for an empty dirent.
  for(off = 0; off < dp->size; off += sizeof(de)){
  101a40:	83 c3 10             	add    $0x10,%ebx
  101a43:	39 5f 18             	cmp    %ebx,0x18(%edi)
  101a46:	76 24                	jbe    101a6c <dirlink+0x6c>
    if(readi(dp, (char*)&de, off, sizeof(de)) != sizeof(de))
  101a48:	c7 44 24 0c 10 00 00 	movl   $0x10,0xc(%esp)
  101a4f:	00 
  101a50:	89 5c 24 08          	mov    %ebx,0x8(%esp)
  101a54:	89 74 24 04          	mov    %esi,0x4(%esp)
  101a58:	89 3c 24             	mov    %edi,(%esp)
  101a5b:	e8 e0 f8 ff ff       	call   101340 <readi>
  101a60:	83 f8 10             	cmp    $0x10,%eax
  101a63:	75 52                	jne    101ab7 <dirlink+0xb7>
      panic("dirlink read");
    if(de.inum == 0)
  101a65:	66 83 7d e4 00       	cmpw   $0x0,-0x1c(%ebp)
  101a6a:	75 d4                	jne    101a40 <dirlink+0x40>
      break;
  }

  strncpy(de.name, name, DIRSIZ);
  101a6c:	8b 45 0c             	mov    0xc(%ebp),%eax
  101a6f:	c7 44 24 08 0e 00 00 	movl   $0xe,0x8(%esp)
  101a76:	00 
  101a77:	89 44 24 04          	mov    %eax,0x4(%esp)
  101a7b:	8d 45 e6             	lea    -0x1a(%ebp),%eax
  101a7e:	89 04 24             	mov    %eax,(%esp)
  101a81:	e8 1a 26 00 00       	call   1040a0 <strncpy>
  de.inum = inum;
  101a86:	0f b7 45 10          	movzwl 0x10(%ebp),%eax
  if(writei(dp, (char*)&de, off, sizeof(de)) != sizeof(de))
  101a8a:	c7 44 24 0c 10 00 00 	movl   $0x10,0xc(%esp)
  101a91:	00 
  101a92:	89 5c 24 08          	mov    %ebx,0x8(%esp)
  101a96:	89 74 24 04          	mov    %esi,0x4(%esp)
    if(de.inum == 0)
      break;
  }

  strncpy(de.name, name, DIRSIZ);
  de.inum = inum;
  101a9a:	66 89 45 e4          	mov    %ax,-0x1c(%ebp)
  if(writei(dp, (char*)&de, off, sizeof(de)) != sizeof(de))
  101a9e:	89 3c 24             	mov    %edi,(%esp)
  101aa1:	e8 3a fa ff ff       	call   1014e0 <writei>
    panic("dirlink");
  101aa6:	31 d2                	xor    %edx,%edx
      break;
  }

  strncpy(de.name, name, DIRSIZ);
  de.inum = inum;
  if(writei(dp, (char*)&de, off, sizeof(de)) != sizeof(de))
  101aa8:	83 f8 10             	cmp    $0x10,%eax
  101aab:	75 2c                	jne    101ad9 <dirlink+0xd9>
    panic("dirlink");
  
  return 0;
}
  101aad:	83 c4 2c             	add    $0x2c,%esp
  101ab0:	89 d0                	mov    %edx,%eax
  101ab2:	5b                   	pop    %ebx
  101ab3:	5e                   	pop    %esi
  101ab4:	5f                   	pop    %edi
  101ab5:	5d                   	pop    %ebp
  101ab6:	c3                   	ret    
  }

  // Look for an empty dirent.
  for(off = 0; off < dp->size; off += sizeof(de)){
    if(readi(dp, (char*)&de, off, sizeof(de)) != sizeof(de))
      panic("dirlink read");
  101ab7:	c7 04 24 92 60 10 00 	movl   $0x106092,(%esp)
  101abe:	e8 bd ed ff ff       	call   100880 <panic>
  struct dirent de;
  struct inode *ip;

  // Check that name is not present.
  if((ip = dirlookup(dp, name, 0)) != 0){
    iput(ip);
  101ac3:	89 04 24             	mov    %eax,(%esp)
  101ac6:	e8 c5 fd ff ff       	call   101890 <iput>
  101acb:	ba ff ff ff ff       	mov    $0xffffffff,%edx
  101ad0:	eb db                	jmp    101aad <dirlink+0xad>
    return -1;
  }

  // Look for an empty dirent.
  for(off = 0; off < dp->size; off += sizeof(de)){
  101ad2:	8d 75 e4             	lea    -0x1c(%ebp),%esi
  101ad5:	31 db                	xor    %ebx,%ebx
  101ad7:	eb 93                	jmp    101a6c <dirlink+0x6c>
  }

  strncpy(de.name, name, DIRSIZ);
  de.inum = inum;
  if(writei(dp, (char*)&de, off, sizeof(de)) != sizeof(de))
    panic("dirlink");
  101ad9:	c7 04 24 5a 66 10 00 	movl   $0x10665a,(%esp)
  101ae0:	e8 9b ed ff ff       	call   100880 <panic>
  101ae5:	8d 74 26 00          	lea    0x0(%esi,%eiz,1),%esi
  101ae9:	8d bc 27 00 00 00 00 	lea    0x0(%edi,%eiz,1),%edi

00101af0 <iunlockput>:
}

// Common idiom: unlock, then put.
void
iunlockput(struct inode *ip)
{
  101af0:	55                   	push   %ebp
  101af1:	89 e5                	mov    %esp,%ebp
  101af3:	53                   	push   %ebx
  101af4:	83 ec 04             	sub    $0x4,%esp
  101af7:	8b 5d 08             	mov    0x8(%ebp),%ebx
  iunlock(ip);
  101afa:	89 1c 24             	mov    %ebx,(%esp)
  101afd:	e8 5e fc ff ff       	call   101760 <iunlock>
  iput(ip);
  101b02:	89 5d 08             	mov    %ebx,0x8(%ebp)
}
  101b05:	83 c4 04             	add    $0x4,%esp
  101b08:	5b                   	pop    %ebx
  101b09:	5d                   	pop    %ebp
// Common idiom: unlock, then put.
void
iunlockput(struct inode *ip)
{
  iunlock(ip);
  iput(ip);
  101b0a:	e9 81 fd ff ff       	jmp    101890 <iput>
  101b0f:	90                   	nop    

00101b10 <ialloc>:
static struct inode* iget(uint dev, uint inum);

// Allocate a new inode with the given type on device dev.
struct inode*
ialloc(uint dev, short type)
{
  101b10:	55                   	push   %ebp
  101b11:	89 e5                	mov    %esp,%ebp
  101b13:	57                   	push   %edi
  101b14:	56                   	push   %esi
  101b15:	53                   	push   %ebx
  101b16:	83 ec 2c             	sub    $0x2c,%esp
  101b19:	0f b7 45 0c          	movzwl 0xc(%ebp),%eax
  int inum;
  struct buf *bp;
  struct dinode *dip;
  struct superblock sb;

  readsb(dev, &sb);
  101b1d:	8d 55 e8             	lea    -0x18(%ebp),%edx
static struct inode* iget(uint dev, uint inum);

// Allocate a new inode with the given type on device dev.
struct inode*
ialloc(uint dev, short type)
{
  101b20:	66 89 45 de          	mov    %ax,-0x22(%ebp)
  int inum;
  struct buf *bp;
  struct dinode *dip;
  struct superblock sb;

  readsb(dev, &sb);
  101b24:	8b 45 08             	mov    0x8(%ebp),%eax
  101b27:	e8 44 f6 ff ff       	call   101170 <readsb>
  for(inum = 1; inum < sb.ninodes; inum++){  // loop over inode blocks
  101b2c:	83 7d f0 01          	cmpl   $0x1,-0x10(%ebp)
  101b30:	0f 86 a2 00 00 00    	jbe    101bd8 <ialloc+0xc8>
  101b36:	be 01 00 00 00       	mov    $0x1,%esi
  101b3b:	c7 45 e0 01 00 00 00 	movl   $0x1,-0x20(%ebp)
  101b42:	eb 17                	jmp    101b5b <ialloc+0x4b>
  101b44:	8d 74 26 00          	lea    0x0(%esi,%eiz,1),%esi
  101b48:	83 c6 01             	add    $0x1,%esi
      dip->type = type;
      bwrite(bp, "ialloc");   // mark it allocated on the disk
      brelse(bp);
      return iget(dev, inum);
    }
    brelse(bp);
  101b4b:	89 3c 24             	mov    %edi,(%esp)
  101b4e:	e8 ad e4 ff ff       	call   100000 <brelse>
  struct buf *bp;
  struct dinode *dip;
  struct superblock sb;

  readsb(dev, &sb);
  for(inum = 1; inum < sb.ninodes; inum++){  // loop over inode blocks
  101b53:	3b 75 f0             	cmp    -0x10(%ebp),%esi
  101b56:	89 75 e0             	mov    %esi,-0x20(%ebp)
  101b59:	73 7d                	jae    101bd8 <ialloc+0xc8>
    bp = bread(dev, IBLOCK(inum));
  101b5b:	8b 45 e0             	mov    -0x20(%ebp),%eax
  101b5e:	c1 e8 03             	shr    $0x3,%eax
  101b61:	83 c0 02             	add    $0x2,%eax
  101b64:	89 44 24 04          	mov    %eax,0x4(%esp)
  101b68:	8b 45 08             	mov    0x8(%ebp),%eax
  101b6b:	89 04 24             	mov    %eax,(%esp)
  101b6e:	e8 4d e5 ff ff       	call   1000c0 <bread>
  101b73:	89 c7                	mov    %eax,%edi
    dip = (struct dinode*)bp->data + inum%IPB;
  101b75:	8b 45 e0             	mov    -0x20(%ebp),%eax
  101b78:	83 e0 07             	and    $0x7,%eax
  101b7b:	c1 e0 06             	shl    $0x6,%eax
  101b7e:	8d 5c 07 18          	lea    0x18(%edi,%eax,1),%ebx
    if(dip->type == 0){  // a free inode
  101b82:	66 83 3b 00          	cmpw   $0x0,(%ebx)
  101b86:	75 c0                	jne    101b48 <ialloc+0x38>
      memset(dip, 0, sizeof(*dip));
  101b88:	89 1c 24             	mov    %ebx,(%esp)
  101b8b:	c7 44 24 08 40 00 00 	movl   $0x40,0x8(%esp)
  101b92:	00 
  101b93:	c7 44 24 04 00 00 00 	movl   $0x0,0x4(%esp)
  101b9a:	00 
  101b9b:	e8 b0 23 00 00       	call   103f50 <memset>
      dip->type = type;
  101ba0:	0f b7 45 de          	movzwl -0x22(%ebp),%eax
  101ba4:	66 89 03             	mov    %ax,(%ebx)
      bwrite(bp, "ialloc");   // mark it allocated on the disk
  101ba7:	89 3c 24             	mov    %edi,(%esp)
  101baa:	c7 44 24 04 3c 66 10 	movl   $0x10663c,0x4(%esp)
  101bb1:	00 
  101bb2:	e8 b9 e4 ff ff       	call   100070 <bwrite>
      brelse(bp);
  101bb7:	89 3c 24             	mov    %edi,(%esp)
  101bba:	e8 41 e4 ff ff       	call   100000 <brelse>
      return iget(dev, inum);
  101bbf:	8b 55 e0             	mov    -0x20(%ebp),%edx
  101bc2:	8b 45 08             	mov    0x8(%ebp),%eax
  101bc5:	e8 d6 f4 ff ff       	call   1010a0 <iget>
    }
    brelse(bp);
  }
  panic("ialloc: no inodes");
}
  101bca:	83 c4 2c             	add    $0x2c,%esp
  101bcd:	5b                   	pop    %ebx
  101bce:	5e                   	pop    %esi
  101bcf:	5f                   	pop    %edi
  101bd0:	5d                   	pop    %ebp
  101bd1:	c3                   	ret    
  101bd2:	8d b6 00 00 00 00    	lea    0x0(%esi),%esi
      brelse(bp);
      return iget(dev, inum);
    }
    brelse(bp);
  }
  panic("ialloc: no inodes");
  101bd8:	c7 04 24 9f 60 10 00 	movl   $0x10609f,(%esp)
  101bdf:	e8 9c ec ff ff       	call   100880 <panic>
  101be4:	8d b6 00 00 00 00    	lea    0x0(%esi),%esi
  101bea:	8d bf 00 00 00 00    	lea    0x0(%edi),%edi

00101bf0 <ilock>:
}

// Lock the given inode.
void
ilock(struct inode *ip)
{
  101bf0:	55                   	push   %ebp
  101bf1:	89 e5                	mov    %esp,%ebp
  101bf3:	56                   	push   %esi
  101bf4:	53                   	push   %ebx
  101bf5:	83 ec 10             	sub    $0x10,%esp
  101bf8:	8b 75 08             	mov    0x8(%ebp),%esi
  struct buf *bp;
  struct dinode *dip;

  if(ip == 0 || ip->ref < 1)
  101bfb:	85 f6                	test   %esi,%esi
  101bfd:	74 59                	je     101c58 <ilock+0x68>
  101bff:	8b 46 08             	mov    0x8(%esi),%eax
  101c02:	85 c0                	test   %eax,%eax
  101c04:	7e 52                	jle    101c58 <ilock+0x68>
    panic("ilock");

  acquire(&icache.lock);
  101c06:	c7 04 24 20 a2 10 00 	movl   $0x10a220,(%esp)
  101c0d:	e8 9e 22 00 00       	call   103eb0 <acquire>
  while(ip->flags & I_BUSY)
  101c12:	8b 46 0c             	mov    0xc(%esi),%eax
  101c15:	a8 01                	test   $0x1,%al
  101c17:	74 1e                	je     101c37 <ilock+0x47>
  101c19:	8d b4 26 00 00 00 00 	lea    0x0(%esi,%eiz,1),%esi
    sleep(ip, &icache.lock);
  101c20:	c7 44 24 04 20 a2 10 	movl   $0x10a220,0x4(%esp)
  101c27:	00 
  101c28:	89 34 24             	mov    %esi,(%esp)
  101c2b:	e8 f0 17 00 00       	call   103420 <sleep>

  if(ip == 0 || ip->ref < 1)
    panic("ilock");

  acquire(&icache.lock);
  while(ip->flags & I_BUSY)
  101c30:	8b 46 0c             	mov    0xc(%esi),%eax
  101c33:	a8 01                	test   $0x1,%al
  101c35:	75 e9                	jne    101c20 <ilock+0x30>
    sleep(ip, &icache.lock);
  ip->flags |= I_BUSY;
  101c37:	83 c8 01             	or     $0x1,%eax
  101c3a:	89 46 0c             	mov    %eax,0xc(%esi)
  release(&icache.lock);
  101c3d:	c7 04 24 20 a2 10 00 	movl   $0x10a220,(%esp)
  101c44:	e8 17 22 00 00       	call   103e60 <release>

  if(!(ip->flags & I_VALID)){
  101c49:	f6 46 0c 02          	testb  $0x2,0xc(%esi)
  101c4d:	74 19                	je     101c68 <ilock+0x78>
    brelse(bp);
    ip->flags |= I_VALID;
    if(ip->type == 0)
      panic("ilock: no type");
  }
}
  101c4f:	83 c4 10             	add    $0x10,%esp
  101c52:	5b                   	pop    %ebx
  101c53:	5e                   	pop    %esi
  101c54:	5d                   	pop    %ebp
  101c55:	c3                   	ret    
  101c56:	66 90                	xchg   %ax,%ax
{
  struct buf *bp;
  struct dinode *dip;

  if(ip == 0 || ip->ref < 1)
    panic("ilock");
  101c58:	c7 04 24 b1 60 10 00 	movl   $0x1060b1,(%esp)
  101c5f:	e8 1c ec ff ff       	call   100880 <panic>
  101c64:	8d 74 26 00          	lea    0x0(%esi,%eiz,1),%esi
    sleep(ip, &icache.lock);
  ip->flags |= I_BUSY;
  release(&icache.lock);

  if(!(ip->flags & I_VALID)){
    bp = bread(ip->dev, IBLOCK(ip->inum));
  101c68:	8b 46 04             	mov    0x4(%esi),%eax
  101c6b:	c1 e8 03             	shr    $0x3,%eax
  101c6e:	83 c0 02             	add    $0x2,%eax
  101c71:	89 44 24 04          	mov    %eax,0x4(%esp)
  101c75:	8b 06                	mov    (%esi),%eax
  101c77:	89 04 24             	mov    %eax,(%esp)
  101c7a:	e8 41 e4 ff ff       	call   1000c0 <bread>
  101c7f:	89 c3                	mov    %eax,%ebx
    dip = (struct dinode*)bp->data + ip->inum%IPB;
  101c81:	8b 46 04             	mov    0x4(%esi),%eax
  101c84:	83 e0 07             	and    $0x7,%eax
  101c87:	c1 e0 06             	shl    $0x6,%eax
  101c8a:	8d 44 03 18          	lea    0x18(%ebx,%eax,1),%eax
    ip->type = dip->type;
  101c8e:	0f b7 10             	movzwl (%eax),%edx
  101c91:	66 89 56 10          	mov    %dx,0x10(%esi)
    ip->major = dip->major;
  101c95:	0f b7 50 02          	movzwl 0x2(%eax),%edx
  101c99:	66 89 56 12          	mov    %dx,0x12(%esi)
    ip->minor = dip->minor;
  101c9d:	0f b7 50 04          	movzwl 0x4(%eax),%edx
  101ca1:	66 89 56 14          	mov    %dx,0x14(%esi)
    ip->nlink = dip->nlink;
  101ca5:	0f b7 50 06          	movzwl 0x6(%eax),%edx
  101ca9:	66 89 56 16          	mov    %dx,0x16(%esi)
    ip->size = dip->size;
  101cad:	8b 50 08             	mov    0x8(%eax),%edx
    memmove(ip->addrs, dip->addrs, sizeof(ip->addrs));
  101cb0:	83 c0 0c             	add    $0xc,%eax
    dip = (struct dinode*)bp->data + ip->inum%IPB;
    ip->type = dip->type;
    ip->major = dip->major;
    ip->minor = dip->minor;
    ip->nlink = dip->nlink;
    ip->size = dip->size;
  101cb3:	89 56 18             	mov    %edx,0x18(%esi)
    memmove(ip->addrs, dip->addrs, sizeof(ip->addrs));
  101cb6:	89 44 24 04          	mov    %eax,0x4(%esp)
  101cba:	8d 46 1c             	lea    0x1c(%esi),%eax
  101cbd:	c7 44 24 08 34 00 00 	movl   $0x34,0x8(%esp)
  101cc4:	00 
  101cc5:	89 04 24             	mov    %eax,(%esp)
  101cc8:	e8 13 23 00 00       	call   103fe0 <memmove>
    brelse(bp);
  101ccd:	89 1c 24             	mov    %ebx,(%esp)
  101cd0:	e8 2b e3 ff ff       	call   100000 <brelse>
    ip->flags |= I_VALID;
  101cd5:	83 4e 0c 02          	orl    $0x2,0xc(%esi)
    if(ip->type == 0)
  101cd9:	66 83 7e 10 00       	cmpw   $0x0,0x10(%esi)
  101cde:	0f 85 6b ff ff ff    	jne    101c4f <ilock+0x5f>
      panic("ilock: no type");
  101ce4:	c7 04 24 b7 60 10 00 	movl   $0x1060b7,(%esp)
  101ceb:	e8 90 eb ff ff       	call   100880 <panic>

00101cf0 <namex>:
// Look up and return the inode for a path name.
// If parent != 0, return the inode for the parent and copy the final
// path element into name, which must have room for DIRSIZ bytes.
static struct inode*
namex(char *path, int nameiparent, char *name)
{
  101cf0:	55                   	push   %ebp
  101cf1:	89 e5                	mov    %esp,%ebp
  101cf3:	57                   	push   %edi
  101cf4:	56                   	push   %esi
  101cf5:	53                   	push   %ebx
  101cf6:	89 c3                	mov    %eax,%ebx
  101cf8:	83 ec 1c             	sub    $0x1c,%esp
  101cfb:	89 55 e8             	mov    %edx,-0x18(%ebp)
  101cfe:	89 4d e4             	mov    %ecx,-0x1c(%ebp)
  struct inode *ip, *next;

  if(*path == '/')
  101d01:	80 38 2f             	cmpb   $0x2f,(%eax)
  101d04:	0f 84 30 01 00 00    	je     101e3a <namex+0x14a>
    ip = iget(ROOTDEV, ROOTINO);
  else
    ip = idup(proc->cwd);
  101d0a:	65 a1 04 00 00 00    	mov    %gs:0x4,%eax
  101d10:	8b 40 68             	mov    0x68(%eax),%eax
  101d13:	89 04 24             	mov    %eax,(%esp)
  101d16:	e8 55 f3 ff ff       	call   101070 <idup>
  101d1b:	89 45 ec             	mov    %eax,-0x14(%ebp)
  101d1e:	eb 03                	jmp    101d23 <namex+0x33>
{
  char *s;
  int len;

  while(*path == '/')
    path++;
  101d20:	83 c3 01             	add    $0x1,%ebx
skipelem(char *path, char *name)
{
  char *s;
  int len;

  while(*path == '/')
  101d23:	0f b6 03             	movzbl (%ebx),%eax
  101d26:	3c 2f                	cmp    $0x2f,%al
  101d28:	74 f6                	je     101d20 <namex+0x30>
    path++;
  if(*path == 0)
  101d2a:	84 c0                	test   %al,%al
skipelem(char *path, char *name)
{
  char *s;
  int len;

  while(*path == '/')
  101d2c:	89 de                	mov    %ebx,%esi
    path++;
  if(*path == 0)
  101d2e:	75 1e                	jne    101d4e <namex+0x5e>
      return 0;
    }
    iunlockput(ip);
    ip = next;
  }
  if(nameiparent){
  101d30:	8b 45 e8             	mov    -0x18(%ebp),%eax
  101d33:	85 c0                	test   %eax,%eax
  101d35:	0f 85 2c 01 00 00    	jne    101e67 <namex+0x177>
    iput(ip);
    return 0;
  }
  return ip;
}
  101d3b:	8b 45 ec             	mov    -0x14(%ebp),%eax
  101d3e:	83 c4 1c             	add    $0x1c,%esp
  101d41:	5b                   	pop    %ebx
  101d42:	5e                   	pop    %esi
  101d43:	5f                   	pop    %edi
  101d44:	5d                   	pop    %ebp
  101d45:	c3                   	ret    
  101d46:	66 90                	xchg   %ax,%ax
    path++;
  if(*path == 0)
    return 0;
  s = path;
  while(*path != '/' && *path != 0)
    path++;
  101d48:	83 c6 01             	add    $0x1,%esi
  while(*path == '/')
    path++;
  if(*path == 0)
    return 0;
  s = path;
  while(*path != '/' && *path != 0)
  101d4b:	0f b6 06             	movzbl (%esi),%eax
  101d4e:	3c 2f                	cmp    $0x2f,%al
  101d50:	74 04                	je     101d56 <namex+0x66>
  101d52:	84 c0                	test   %al,%al
  101d54:	75 f2                	jne    101d48 <namex+0x58>
    path++;
  len = path - s;
  101d56:	89 f2                	mov    %esi,%edx
  while(*path == '/')
    path++;
  if(*path == 0)
    return 0;
  s = path;
  while(*path != '/' && *path != 0)
  101d58:	89 f7                	mov    %esi,%edi
    path++;
  len = path - s;
  101d5a:	29 da                	sub    %ebx,%edx
  if(len >= DIRSIZ)
  101d5c:	83 fa 0d             	cmp    $0xd,%edx
  if(*path == 0)
    return 0;
  s = path;
  while(*path != '/' && *path != 0)
    path++;
  len = path - s;
  101d5f:	89 55 f0             	mov    %edx,-0x10(%ebp)
  if(len >= DIRSIZ)
  101d62:	0f 8e 90 00 00 00    	jle    101df8 <namex+0x108>
    memmove(name, s, DIRSIZ);
  101d68:	c7 44 24 08 0e 00 00 	movl   $0xe,0x8(%esp)
  101d6f:	00 
  101d70:	89 5c 24 04          	mov    %ebx,0x4(%esp)
  101d74:	8b 45 e4             	mov    -0x1c(%ebp),%eax
  101d77:	89 04 24             	mov    %eax,(%esp)
  101d7a:	e8 61 22 00 00       	call   103fe0 <memmove>
  else {
    memmove(name, s, len);
    name[len] = 0;
  }
  while(*path == '/')
  101d7f:	80 3e 2f             	cmpb   $0x2f,(%esi)
  101d82:	75 0c                	jne    101d90 <namex+0xa0>
  101d84:	8d 74 26 00          	lea    0x0(%esi,%eiz,1),%esi
    path++;
  101d88:	83 c7 01             	add    $0x1,%edi
    memmove(name, s, DIRSIZ);
  else {
    memmove(name, s, len);
    name[len] = 0;
  }
  while(*path == '/')
  101d8b:	80 3f 2f             	cmpb   $0x2f,(%edi)
  101d8e:	74 f8                	je     101d88 <namex+0x98>
  if(*path == '/')
    ip = iget(ROOTDEV, ROOTINO);
  else
    ip = idup(proc->cwd);

  while((path = skipelem(path, name)) != 0){
  101d90:	85 ff                	test   %edi,%edi
  101d92:	8d b6 00 00 00 00    	lea    0x0(%esi),%esi
  101d98:	74 96                	je     101d30 <namex+0x40>
    ilock(ip);
  101d9a:	8b 45 ec             	mov    -0x14(%ebp),%eax
  101d9d:	89 04 24             	mov    %eax,(%esp)
  101da0:	e8 4b fe ff ff       	call   101bf0 <ilock>
    if(ip->type != T_DIR){
  101da5:	8b 55 ec             	mov    -0x14(%ebp),%edx
  101da8:	66 83 7a 10 01       	cmpw   $0x1,0x10(%edx)
  101dad:	75 71                	jne    101e20 <namex+0x130>
      iunlockput(ip);
      return 0;
    }
    if(nameiparent && *path == '\0'){
  101daf:	8b 45 e8             	mov    -0x18(%ebp),%eax
  101db2:	85 c0                	test   %eax,%eax
  101db4:	74 09                	je     101dbf <namex+0xcf>
  101db6:	80 3f 00             	cmpb   $0x0,(%edi)
  101db9:	0f 84 92 00 00 00    	je     101e51 <namex+0x161>
      // Stop one level early.
      iunlock(ip);
      return ip;
    }
    if((next = dirlookup(ip, name, 0)) == 0){
  101dbf:	c7 44 24 08 00 00 00 	movl   $0x0,0x8(%esp)
  101dc6:	00 
  101dc7:	8b 55 e4             	mov    -0x1c(%ebp),%edx
  101dca:	89 54 24 04          	mov    %edx,0x4(%esp)
  101dce:	8b 45 ec             	mov    -0x14(%ebp),%eax
  101dd1:	89 04 24             	mov    %eax,(%esp)
  101dd4:	e8 77 f8 ff ff       	call   101650 <dirlookup>
  101dd9:	85 c0                	test   %eax,%eax
  101ddb:	89 c3                	mov    %eax,%ebx
  101ddd:	74 3e                	je     101e1d <namex+0x12d>
      iunlockput(ip);
      return 0;
    }
    iunlockput(ip);
  101ddf:	8b 45 ec             	mov    -0x14(%ebp),%eax
  101de2:	89 04 24             	mov    %eax,(%esp)
  101de5:	e8 06 fd ff ff       	call   101af0 <iunlockput>
  101dea:	89 5d ec             	mov    %ebx,-0x14(%ebp)
  101ded:	89 fb                	mov    %edi,%ebx
  101def:	e9 2f ff ff ff       	jmp    101d23 <namex+0x33>
  101df4:	8d 74 26 00          	lea    0x0(%esi,%eiz,1),%esi
    path++;
  len = path - s;
  if(len >= DIRSIZ)
    memmove(name, s, DIRSIZ);
  else {
    memmove(name, s, len);
  101df8:	8b 55 f0             	mov    -0x10(%ebp),%edx
  101dfb:	89 5c 24 04          	mov    %ebx,0x4(%esp)
  101dff:	89 54 24 08          	mov    %edx,0x8(%esp)
  101e03:	8b 45 e4             	mov    -0x1c(%ebp),%eax
  101e06:	89 04 24             	mov    %eax,(%esp)
  101e09:	e8 d2 21 00 00       	call   103fe0 <memmove>
    name[len] = 0;
  101e0e:	8b 45 e4             	mov    -0x1c(%ebp),%eax
  101e11:	8b 55 f0             	mov    -0x10(%ebp),%edx
  101e14:	c6 04 10 00          	movb   $0x0,(%eax,%edx,1)
  101e18:	e9 62 ff ff ff       	jmp    101d7f <namex+0x8f>
      // Stop one level early.
      iunlock(ip);
      return ip;
    }
    if((next = dirlookup(ip, name, 0)) == 0){
      iunlockput(ip);
  101e1d:	8b 55 ec             	mov    -0x14(%ebp),%edx
  101e20:	89 14 24             	mov    %edx,(%esp)
  101e23:	e8 c8 fc ff ff       	call   101af0 <iunlockput>
  101e28:	c7 45 ec 00 00 00 00 	movl   $0x0,-0x14(%ebp)
  if(nameiparent){
    iput(ip);
    return 0;
  }
  return ip;
}
  101e2f:	8b 45 ec             	mov    -0x14(%ebp),%eax
  101e32:	83 c4 1c             	add    $0x1c,%esp
  101e35:	5b                   	pop    %ebx
  101e36:	5e                   	pop    %esi
  101e37:	5f                   	pop    %edi
  101e38:	5d                   	pop    %ebp
  101e39:	c3                   	ret    
namex(char *path, int nameiparent, char *name)
{
  struct inode *ip, *next;

  if(*path == '/')
    ip = iget(ROOTDEV, ROOTINO);
  101e3a:	ba 01 00 00 00       	mov    $0x1,%edx
  101e3f:	b8 01 00 00 00       	mov    $0x1,%eax
  101e44:	e8 57 f2 ff ff       	call   1010a0 <iget>
  101e49:	89 45 ec             	mov    %eax,-0x14(%ebp)
  101e4c:	e9 d2 fe ff ff       	jmp    101d23 <namex+0x33>
      iunlockput(ip);
      return 0;
    }
    if(nameiparent && *path == '\0'){
      // Stop one level early.
      iunlock(ip);
  101e51:	8b 45 ec             	mov    -0x14(%ebp),%eax
  101e54:	89 04 24             	mov    %eax,(%esp)
  101e57:	e8 04 f9 ff ff       	call   101760 <iunlock>
  if(nameiparent){
    iput(ip);
    return 0;
  }
  return ip;
}
  101e5c:	8b 45 ec             	mov    -0x14(%ebp),%eax
  101e5f:	83 c4 1c             	add    $0x1c,%esp
  101e62:	5b                   	pop    %ebx
  101e63:	5e                   	pop    %esi
  101e64:	5f                   	pop    %edi
  101e65:	5d                   	pop    %ebp
  101e66:	c3                   	ret    
    }
    iunlockput(ip);
    ip = next;
  }
  if(nameiparent){
    iput(ip);
  101e67:	8b 55 ec             	mov    -0x14(%ebp),%edx
  101e6a:	89 14 24             	mov    %edx,(%esp)
  101e6d:	e8 1e fa ff ff       	call   101890 <iput>
  101e72:	c7 45 ec 00 00 00 00 	movl   $0x0,-0x14(%ebp)
  101e79:	e9 bd fe ff ff       	jmp    101d3b <namex+0x4b>
  101e7e:	66 90                	xchg   %ax,%ax

00101e80 <nameiparent>:
  return namex(path, 0, name);
}

struct inode*
nameiparent(char *path, char *name)
{
  101e80:	55                   	push   %ebp
  return namex(path, 1, name);
  101e81:	ba 01 00 00 00       	mov    $0x1,%edx
  return namex(path, 0, name);
}

struct inode*
nameiparent(char *path, char *name)
{
  101e86:	89 e5                	mov    %esp,%ebp
  101e88:	8b 45 08             	mov    0x8(%ebp),%eax
  101e8b:	8b 4d 0c             	mov    0xc(%ebp),%ecx
  return namex(path, 1, name);
}
  101e8e:	5d                   	pop    %ebp
}

struct inode*
nameiparent(char *path, char *name)
{
  return namex(path, 1, name);
  101e8f:	e9 5c fe ff ff       	jmp    101cf0 <namex>
  101e94:	8d b6 00 00 00 00    	lea    0x0(%esi),%esi
  101e9a:	8d bf 00 00 00 00    	lea    0x0(%edi),%edi

00101ea0 <namei>:
  return ip;
}

struct inode*
namei(char *path)
{
  101ea0:	55                   	push   %ebp
  char name[DIRSIZ];
  return namex(path, 0, name);
  101ea1:	31 d2                	xor    %edx,%edx
  return ip;
}

struct inode*
namei(char *path)
{
  101ea3:	89 e5                	mov    %esp,%ebp
  101ea5:	83 ec 18             	sub    $0x18,%esp
  char name[DIRSIZ];
  return namex(path, 0, name);
  101ea8:	8b 45 08             	mov    0x8(%ebp),%eax
  101eab:	8d 4d f2             	lea    -0xe(%ebp),%ecx
  101eae:	e8 3d fe ff ff       	call   101cf0 <namex>
}
  101eb3:	c9                   	leave  
  101eb4:	c3                   	ret    
  101eb5:	8d 74 26 00          	lea    0x0(%esi,%eiz,1),%esi
  101eb9:	8d bc 27 00 00 00 00 	lea    0x0(%edi,%eiz,1),%edi

00101ec0 <iinit>:
  struct inode inode[NINODE];
} icache;

void
iinit(void)
{
  101ec0:	55                   	push   %ebp
  101ec1:	89 e5                	mov    %esp,%ebp
  101ec3:	83 ec 08             	sub    $0x8,%esp
  initlock(&icache.lock, "icache");
  101ec6:	c7 44 24 04 c6 60 10 	movl   $0x1060c6,0x4(%esp)
  101ecd:	00 
  101ece:	c7 04 24 20 a2 10 00 	movl   $0x10a220,(%esp)
  101ed5:	e8 46 1e 00 00       	call   103d20 <initlock>
}
  101eda:	c9                   	leave  
  101edb:	c3                   	ret    
  101edc:	90                   	nop    
  101edd:	90                   	nop    
  101ede:	90                   	nop    
  101edf:	90                   	nop    

00101ee0 <idestart>:
}

// Start the request for b.  Caller must hold idelock.
static void
idestart(struct buf *b)
{
  101ee0:	55                   	push   %ebp
static inline uchar
inb(ushort port)
{
  uchar data;

  asm volatile("in %1,%0" : "=a" (data) : "d" (port));
  101ee1:	ba f7 01 00 00       	mov    $0x1f7,%edx
  101ee6:	89 e5                	mov    %esp,%ebp
  101ee8:	56                   	push   %esi
  101ee9:	89 c6                	mov    %eax,%esi
  101eeb:	83 ec 04             	sub    $0x4,%esp
  if(b == 0)
  101eee:	85 c0                	test   %eax,%eax
  101ef0:	0f 84 88 00 00 00    	je     101f7e <idestart+0x9e>
  101ef6:	66 90                	xchg   %ax,%ax
  101ef8:	ec                   	in     (%dx),%al
static int
idewait(int checkerr)
{
  int r;

  while(((r = inb(0x1f7)) & (IDE_BSY|IDE_DRDY)) != IDE_DRDY) 
  101ef9:	25 c0 00 00 00       	and    $0xc0,%eax
  101efe:	83 f8 40             	cmp    $0x40,%eax
  101f01:	75 f5                	jne    101ef8 <idestart+0x18>
}

static inline void
outb(ushort port, uchar data)
{
  asm volatile("out %0,%1" : : "a" (data), "d" (port));
  101f03:	ba f6 03 00 00       	mov    $0x3f6,%edx
  101f08:	31 c0                	xor    %eax,%eax
  101f0a:	ee                   	out    %al,(%dx)
    panic("idestart");

  idewait(0);
  outb(0x3f6, 0);  // generate interrupt
  outb(0x1f2, 1);  // number of sectors
  outb(0x1f3, b->sector & 0xff);
  101f0b:	ba f2 01 00 00       	mov    $0x1f2,%edx
  101f10:	b8 01 00 00 00       	mov    $0x1,%eax
  101f15:	ee                   	out    %al,(%dx)
  101f16:	8b 4e 08             	mov    0x8(%esi),%ecx
  101f19:	b2 f3                	mov    $0xf3,%dl
  101f1b:	89 c8                	mov    %ecx,%eax
  101f1d:	ee                   	out    %al,(%dx)
  outb(0x1f4, (b->sector >> 8) & 0xff);
  outb(0x1f5, (b->sector >> 16) & 0xff);
  outb(0x1f6, 0xe0 | ((b->dev&1)<<4) | ((b->sector>>24)&0x0f));
  if(b->flags & B_DIRTY){
  101f1e:	c1 e9 08             	shr    $0x8,%ecx
  101f21:	b2 f4                	mov    $0xf4,%dl
  101f23:	89 c8                	mov    %ecx,%eax
  101f25:	ee                   	out    %al,(%dx)
  101f26:	c1 e9 08             	shr    $0x8,%ecx
  101f29:	b2 f5                	mov    $0xf5,%dl
  101f2b:	89 c8                	mov    %ecx,%eax
  101f2d:	ee                   	out    %al,(%dx)
  101f2e:	8b 46 04             	mov    0x4(%esi),%eax
  101f31:	c1 e9 08             	shr    $0x8,%ecx
  101f34:	89 ca                	mov    %ecx,%edx
  101f36:	83 e2 0f             	and    $0xf,%edx
  101f39:	83 e0 01             	and    $0x1,%eax
  101f3c:	c1 e0 04             	shl    $0x4,%eax
  101f3f:	09 d0                	or     %edx,%eax
  101f41:	ba f6 01 00 00       	mov    $0x1f6,%edx
  101f46:	83 c8 e0             	or     $0xffffffe0,%eax
  101f49:	ee                   	out    %al,(%dx)
  101f4a:	f6 06 04             	testb  $0x4,(%esi)
  101f4d:	75 11                	jne    101f60 <idestart+0x80>
  101f4f:	ba f7 01 00 00       	mov    $0x1f7,%edx
  101f54:	b8 20 00 00 00       	mov    $0x20,%eax
  101f59:	ee                   	out    %al,(%dx)
    outb(0x1f7, IDE_CMD_WRITE);
    outsl(0x1f0, b->data, 512/4);
  } else {
    outb(0x1f7, IDE_CMD_READ);
  }
}
  101f5a:	83 c4 04             	add    $0x4,%esp
  101f5d:	5e                   	pop    %esi
  101f5e:	5d                   	pop    %ebp
  101f5f:	c3                   	ret    
  101f60:	b2 f7                	mov    $0xf7,%dl
  101f62:	b8 30 00 00 00       	mov    $0x30,%eax
  101f67:	ee                   	out    %al,(%dx)
}

static inline void
outsl(int port, const void *addr, int cnt)
{
  asm volatile("cld; rep outsl" :
  101f68:	b9 80 00 00 00       	mov    $0x80,%ecx
  101f6d:	83 c6 18             	add    $0x18,%esi
  101f70:	ba f0 01 00 00       	mov    $0x1f0,%edx
  101f75:	fc                   	cld    
  101f76:	f3 6f                	rep outsl %ds:(%esi),(%dx)
  101f78:	83 c4 04             	add    $0x4,%esp
  101f7b:	5e                   	pop    %esi
  101f7c:	5d                   	pop    %ebp
  101f7d:	c3                   	ret    
// Start the request for b.  Caller must hold idelock.
static void
idestart(struct buf *b)
{
  if(b == 0)
    panic("idestart");
  101f7e:	c7 04 24 cd 60 10 00 	movl   $0x1060cd,(%esp)
  101f85:	e8 f6 e8 ff ff       	call   100880 <panic>
  101f8a:	8d b6 00 00 00 00    	lea    0x0(%esi),%esi

00101f90 <iderw>:
// Sync buf with disk. 
// If B_DIRTY is set, write buf to disk, clear B_DIRTY, set B_VALID.
// Else if B_VALID is not set, read buf from disk, set B_VALID.
void
iderw(struct buf *b)
{
  101f90:	55                   	push   %ebp
  101f91:	89 e5                	mov    %esp,%ebp
  101f93:	53                   	push   %ebx
  101f94:	83 ec 14             	sub    $0x14,%esp
  101f97:	8b 5d 08             	mov    0x8(%ebp),%ebx
  struct buf **pp;

  if(!(b->flags & B_BUSY))
  101f9a:	8b 03                	mov    (%ebx),%eax
  101f9c:	a8 01                	test   $0x1,%al
  101f9e:	0f 84 90 00 00 00    	je     102034 <iderw+0xa4>
    panic("iderw: buf not busy");
  if((b->flags & (B_VALID|B_DIRTY)) == B_VALID)
  101fa4:	83 e0 06             	and    $0x6,%eax
  101fa7:	83 f8 02             	cmp    $0x2,%eax
  101faa:	0f 84 90 00 00 00    	je     102040 <iderw+0xb0>
    panic("iderw: nothing to do");
  if(b->dev != 0 && !havedisk1)
  101fb0:	8b 53 04             	mov    0x4(%ebx),%edx
  101fb3:	85 d2                	test   %edx,%edx
  101fb5:	74 0d                	je     101fc4 <iderw+0x34>
  101fb7:	a1 f8 7f 10 00       	mov    0x107ff8,%eax
  101fbc:	85 c0                	test   %eax,%eax
  101fbe:	0f 84 88 00 00 00    	je     10204c <iderw+0xbc>
    panic("idrw: ide disk 1 not present");

  acquire(&idelock);
  101fc4:	c7 04 24 c0 7f 10 00 	movl   $0x107fc0,(%esp)
  101fcb:	e8 e0 1e 00 00       	call   103eb0 <acquire>

  // Append b to idequeue.
  b->qnext = 0;
  for(pp=&idequeue; *pp; pp=&(*pp)->qnext)
  101fd0:	ba f4 7f 10 00       	mov    $0x107ff4,%edx
    panic("idrw: ide disk 1 not present");

  acquire(&idelock);

  // Append b to idequeue.
  b->qnext = 0;
  101fd5:	c7 43 14 00 00 00 00 	movl   $0x0,0x14(%ebx)
  101fdc:	a1 f4 7f 10 00       	mov    0x107ff4,%eax
  for(pp=&idequeue; *pp; pp=&(*pp)->qnext)
  101fe1:	85 c0                	test   %eax,%eax
  101fe3:	74 0d                	je     101ff2 <iderw+0x62>
  101fe5:	8d 76 00             	lea    0x0(%esi),%esi
  101fe8:	8d 50 14             	lea    0x14(%eax),%edx
  101feb:	8b 40 14             	mov    0x14(%eax),%eax
  101fee:	85 c0                	test   %eax,%eax
  101ff0:	75 f6                	jne    101fe8 <iderw+0x58>
    ;
  *pp = b;
  101ff2:	89 1a                	mov    %ebx,(%edx)
  
  // Start disk if necessary.
  if(idequeue == b)
  101ff4:	39 1d f4 7f 10 00    	cmp    %ebx,0x107ff4
  101ffa:	75 14                	jne    102010 <iderw+0x80>
  101ffc:	eb 2d                	jmp    10202b <iderw+0x9b>
  101ffe:	66 90                	xchg   %ax,%ax
    idestart(b);
  
  // Wait for request to finish.
  // Assuming will not sleep too long: ignore proc->killed.
  while((b->flags & (B_VALID|B_DIRTY)) != B_VALID)
    sleep(b, &idelock);
  102000:	c7 44 24 04 c0 7f 10 	movl   $0x107fc0,0x4(%esp)
  102007:	00 
  102008:	89 1c 24             	mov    %ebx,(%esp)
  10200b:	e8 10 14 00 00       	call   103420 <sleep>
  if(idequeue == b)
    idestart(b);
  
  // Wait for request to finish.
  // Assuming will not sleep too long: ignore proc->killed.
  while((b->flags & (B_VALID|B_DIRTY)) != B_VALID)
  102010:	8b 03                	mov    (%ebx),%eax
  102012:	83 e0 06             	and    $0x6,%eax
  102015:	83 f8 02             	cmp    $0x2,%eax
  102018:	75 e6                	jne    102000 <iderw+0x70>
    sleep(b, &idelock);

  release(&idelock);
  10201a:	c7 45 08 c0 7f 10 00 	movl   $0x107fc0,0x8(%ebp)
}
  102021:	83 c4 14             	add    $0x14,%esp
  102024:	5b                   	pop    %ebx
  102025:	5d                   	pop    %ebp
  // Wait for request to finish.
  // Assuming will not sleep too long: ignore proc->killed.
  while((b->flags & (B_VALID|B_DIRTY)) != B_VALID)
    sleep(b, &idelock);

  release(&idelock);
  102026:	e9 35 1e 00 00       	jmp    103e60 <release>
    ;
  *pp = b;
  
  // Start disk if necessary.
  if(idequeue == b)
    idestart(b);
  10202b:	89 d8                	mov    %ebx,%eax
  10202d:	e8 ae fe ff ff       	call   101ee0 <idestart>
  102032:	eb dc                	jmp    102010 <iderw+0x80>
iderw(struct buf *b)
{
  struct buf **pp;

  if(!(b->flags & B_BUSY))
    panic("iderw: buf not busy");
  102034:	c7 04 24 d6 60 10 00 	movl   $0x1060d6,(%esp)
  10203b:	e8 40 e8 ff ff       	call   100880 <panic>
  if((b->flags & (B_VALID|B_DIRTY)) == B_VALID)
    panic("iderw: nothing to do");
  102040:	c7 04 24 ea 60 10 00 	movl   $0x1060ea,(%esp)
  102047:	e8 34 e8 ff ff       	call   100880 <panic>
  if(b->dev != 0 && !havedisk1)
    panic("idrw: ide disk 1 not present");
  10204c:	c7 04 24 ff 60 10 00 	movl   $0x1060ff,(%esp)
  102053:	e8 28 e8 ff ff       	call   100880 <panic>
  102058:	90                   	nop    
  102059:	8d b4 26 00 00 00 00 	lea    0x0(%esi,%eiz,1),%esi

00102060 <ideintr>:
}

// Interrupt handler.
void
ideintr(void)
{
  102060:	55                   	push   %ebp
  102061:	89 e5                	mov    %esp,%ebp
  102063:	57                   	push   %edi
  102064:	53                   	push   %ebx
  102065:	83 ec 10             	sub    $0x10,%esp
  struct buf *b;

  // Take first buffer off queue.
  acquire(&idelock);
  102068:	c7 04 24 c0 7f 10 00 	movl   $0x107fc0,(%esp)
  10206f:	e8 3c 1e 00 00       	call   103eb0 <acquire>
  if((b = idequeue) == 0){
  102074:	8b 1d f4 7f 10 00    	mov    0x107ff4,%ebx
  10207a:	85 db                	test   %ebx,%ebx
  10207c:	74 7a                	je     1020f8 <ideintr+0x98>
    release(&idelock);
    cprintf("Spurious IDE interrupt.\n");
    return;
  }
  idequeue = b->qnext;
  10207e:	8b 43 14             	mov    0x14(%ebx),%eax
  102081:	a3 f4 7f 10 00       	mov    %eax,0x107ff4

  // Read data if needed.
  if(!(b->flags & B_DIRTY) && idewait(1) >= 0)
  102086:	8b 0b                	mov    (%ebx),%ecx
  102088:	f6 c1 04             	test   $0x4,%cl
  10208b:	74 33                	je     1020c0 <ideintr+0x60>
    insl(0x1f0, b->data, 512/4);
  
  // Wake process waiting for this buf.
  b->flags |= B_VALID;
  b->flags &= ~B_DIRTY;
  10208d:	83 c9 02             	or     $0x2,%ecx
  102090:	83 e1 fb             	and    $0xfffffffb,%ecx
  102093:	89 0b                	mov    %ecx,(%ebx)
  wakeup(b);
  102095:	89 1c 24             	mov    %ebx,(%esp)
  102098:	e8 33 11 00 00       	call   1031d0 <wakeup>
  
  // Start disk on next buf in queue.
  if(idequeue != 0)
  10209d:	a1 f4 7f 10 00       	mov    0x107ff4,%eax
  1020a2:	85 c0                	test   %eax,%eax
  1020a4:	74 05                	je     1020ab <ideintr+0x4b>
    idestart(idequeue);
  1020a6:	e8 35 fe ff ff       	call   101ee0 <idestart>

  release(&idelock);
  1020ab:	c7 04 24 c0 7f 10 00 	movl   $0x107fc0,(%esp)
  1020b2:	e8 a9 1d 00 00       	call   103e60 <release>
}
  1020b7:	83 c4 10             	add    $0x10,%esp
  1020ba:	5b                   	pop    %ebx
  1020bb:	5f                   	pop    %edi
  1020bc:	5d                   	pop    %ebp
  1020bd:	c3                   	ret    
  1020be:	66 90                	xchg   %ax,%ax
static inline uchar
inb(ushort port)
{
  uchar data;

  asm volatile("in %1,%0" : "=a" (data) : "d" (port));
  1020c0:	bf f7 01 00 00       	mov    $0x1f7,%edi
  1020c5:	8d 76 00             	lea    0x0(%esi),%esi
  1020c8:	89 fa                	mov    %edi,%edx
  1020ca:	ec                   	in     (%dx),%al
static int
idewait(int checkerr)
{
  int r;

  while(((r = inb(0x1f7)) & (IDE_BSY|IDE_DRDY)) != IDE_DRDY) 
  1020cb:	0f b6 d0             	movzbl %al,%edx
  1020ce:	89 d0                	mov    %edx,%eax
  1020d0:	25 c0 00 00 00       	and    $0xc0,%eax
  1020d5:	83 f8 40             	cmp    $0x40,%eax
  1020d8:	75 ee                	jne    1020c8 <ideintr+0x68>
    ;
  if(checkerr && (r & (IDE_DF|IDE_ERR)) != 0)
  1020da:	83 e2 21             	and    $0x21,%edx
  1020dd:	75 ae                	jne    10208d <ideintr+0x2d>
}

static inline void
insl(int port, void *addr, int cnt)
{
  asm volatile("cld; rep insl" :
  1020df:	8d 7b 18             	lea    0x18(%ebx),%edi
  1020e2:	b9 80 00 00 00       	mov    $0x80,%ecx
  1020e7:	ba f0 01 00 00       	mov    $0x1f0,%edx
  1020ec:	fc                   	cld    
  1020ed:	f3 6d                	rep insl (%dx),%es:(%edi)
  1020ef:	8b 0b                	mov    (%ebx),%ecx
  1020f1:	eb 9a                	jmp    10208d <ideintr+0x2d>
  1020f3:	90                   	nop    
  1020f4:	8d 74 26 00          	lea    0x0(%esi,%eiz,1),%esi
  struct buf *b;

  // Take first buffer off queue.
  acquire(&idelock);
  if((b = idequeue) == 0){
    release(&idelock);
  1020f8:	c7 04 24 c0 7f 10 00 	movl   $0x107fc0,(%esp)
  1020ff:	e8 5c 1d 00 00       	call   103e60 <release>
    cprintf("Spurious IDE interrupt.\n");
  102104:	c7 04 24 1c 61 10 00 	movl   $0x10611c,(%esp)
  10210b:	e8 90 e3 ff ff       	call   1004a0 <cprintf>
  102110:	eb a5                	jmp    1020b7 <ideintr+0x57>
  102112:	8d b4 26 00 00 00 00 	lea    0x0(%esi,%eiz,1),%esi
  102119:	8d bc 27 00 00 00 00 	lea    0x0(%edi,%eiz,1),%edi

00102120 <ideinit>:
  return 0;
}

void
ideinit(void)
{
  102120:	55                   	push   %ebp
  102121:	89 e5                	mov    %esp,%ebp
  102123:	53                   	push   %ebx
  102124:	83 ec 14             	sub    $0x14,%esp
  int i;

  initlock(&idelock, "ide");
  102127:	c7 44 24 04 35 61 10 	movl   $0x106135,0x4(%esp)
  10212e:	00 
  10212f:	c7 04 24 c0 7f 10 00 	movl   $0x107fc0,(%esp)
  102136:	e8 e5 1b 00 00       	call   103d20 <initlock>
  picenable(IRQ_IDE);
  10213b:	c7 04 24 0e 00 00 00 	movl   $0xe,(%esp)
  102142:	e8 89 0b 00 00       	call   102cd0 <picenable>
  ioapicenable(IRQ_IDE, ncpu - 1);
  102147:	a1 40 b8 10 00       	mov    0x10b840,%eax
  10214c:	c7 04 24 0e 00 00 00 	movl   $0xe,(%esp)
  102153:	83 e8 01             	sub    $0x1,%eax
  102156:	89 44 24 04          	mov    %eax,0x4(%esp)
  10215a:	e8 61 00 00 00       	call   1021c0 <ioapicenable>
static inline uchar
inb(ushort port)
{
  uchar data;

  asm volatile("in %1,%0" : "=a" (data) : "d" (port));
  10215f:	ba f7 01 00 00       	mov    $0x1f7,%edx
  102164:	8d 74 26 00          	lea    0x0(%esi,%eiz,1),%esi
  102168:	ec                   	in     (%dx),%al
static int
idewait(int checkerr)
{
  int r;

  while(((r = inb(0x1f7)) & (IDE_BSY|IDE_DRDY)) != IDE_DRDY) 
  102169:	25 c0 00 00 00       	and    $0xc0,%eax
  10216e:	83 f8 40             	cmp    $0x40,%eax
  102171:	75 f5                	jne    102168 <ideinit+0x48>
}

static inline void
outb(ushort port, uchar data)
{
  asm volatile("out %0,%1" : : "a" (data), "d" (port));
  102173:	ba f6 01 00 00       	mov    $0x1f6,%edx
  102178:	b8 f0 ff ff ff       	mov    $0xfffffff0,%eax
  10217d:	ee                   	out    %al,(%dx)
  10217e:	31 db                	xor    %ebx,%ebx
static inline uchar
inb(ushort port)
{
  uchar data;

  asm volatile("in %1,%0" : "=a" (data) : "d" (port));
  102180:	b9 f7 01 00 00       	mov    $0x1f7,%ecx
  102185:	eb 0c                	jmp    102193 <ideinit+0x73>
  102187:	90                   	nop    
  ioapicenable(IRQ_IDE, ncpu - 1);
  idewait(0);
  
  // Check if disk 1 is present
  outb(0x1f6, 0xe0 | (1<<4));
  for(i=0; i<1000; i++){
  102188:	83 c3 01             	add    $0x1,%ebx
  10218b:	81 fb e8 03 00 00    	cmp    $0x3e8,%ebx
  102191:	74 11                	je     1021a4 <ideinit+0x84>
  102193:	89 ca                	mov    %ecx,%edx
  102195:	ec                   	in     (%dx),%al
    if(inb(0x1f7) != 0){
  102196:	84 c0                	test   %al,%al
  102198:	74 ee                	je     102188 <ideinit+0x68>
      havedisk1 = 1;
  10219a:	c7 05 f8 7f 10 00 01 	movl   $0x1,0x107ff8
  1021a1:	00 00 00 
}

static inline void
outb(ushort port, uchar data)
{
  asm volatile("out %0,%1" : : "a" (data), "d" (port));
  1021a4:	ba f6 01 00 00       	mov    $0x1f6,%edx
  1021a9:	b8 e0 ff ff ff       	mov    $0xffffffe0,%eax
  1021ae:	ee                   	out    %al,(%dx)
    }
  }
  
  // Switch back to disk 0.
  outb(0x1f6, 0xe0 | (0<<4));
}
  1021af:	83 c4 14             	add    $0x14,%esp
  1021b2:	5b                   	pop    %ebx
  1021b3:	5d                   	pop    %ebp
  1021b4:	c3                   	ret    
  1021b5:	90                   	nop    
  1021b6:	90                   	nop    
  1021b7:	90                   	nop    
  1021b8:	90                   	nop    
  1021b9:	90                   	nop    
  1021ba:	90                   	nop    
  1021bb:	90                   	nop    
  1021bc:	90                   	nop    
  1021bd:	90                   	nop    
  1021be:	90                   	nop    
  1021bf:	90                   	nop    

001021c0 <ioapicenable>:
}

void
ioapicenable(int irq, int cpunum)
{
  if(!ismp)
  1021c0:	8b 15 44 b2 10 00    	mov    0x10b244,%edx
  }
}

void
ioapicenable(int irq, int cpunum)
{
  1021c6:	55                   	push   %ebp
  1021c7:	89 e5                	mov    %esp,%ebp
  1021c9:	8b 45 08             	mov    0x8(%ebp),%eax
  if(!ismp)
  1021cc:	85 d2                	test   %edx,%edx
  }
}

void
ioapicenable(int irq, int cpunum)
{
  1021ce:	53                   	push   %ebx
  1021cf:	8b 5d 0c             	mov    0xc(%ebp),%ebx
  if(!ismp)
  1021d2:	74 2b                	je     1021ff <ioapicenable+0x3f>
    return;

  // Mark interrupt edge-triggered, active high,
  // enabled, and routed to the given cpunum,
  // which happens to be that cpu's APIC ID.
  ioapicwrite(REG_TABLE+2*irq, T_IRQ0 + irq);
  1021d4:	8d 54 00 10          	lea    0x10(%eax,%eax,1),%edx
  1021d8:	8d 48 20             	lea    0x20(%eax),%ecx
}

static void
ioapicwrite(int reg, uint data)
{
  ioapic->reg = reg;
  1021db:	a1 f4 b1 10 00       	mov    0x10b1f4,%eax

  // Mark interrupt edge-triggered, active high,
  // enabled, and routed to the given cpunum,
  // which happens to be that cpu's APIC ID.
  ioapicwrite(REG_TABLE+2*irq, T_IRQ0 + irq);
  ioapicwrite(REG_TABLE+2*irq+1, cpunum << 24);
  1021e0:	c1 e3 18             	shl    $0x18,%ebx
}

static void
ioapicwrite(int reg, uint data)
{
  ioapic->reg = reg;
  1021e3:	89 10                	mov    %edx,(%eax)
  ioapic->data = data;
  1021e5:	a1 f4 b1 10 00       	mov    0x10b1f4,%eax
}

static void
ioapicwrite(int reg, uint data)
{
  ioapic->reg = reg;
  1021ea:	83 c2 01             	add    $0x1,%edx
  ioapic->data = data;
  1021ed:	89 48 10             	mov    %ecx,0x10(%eax)
}

static void
ioapicwrite(int reg, uint data)
{
  ioapic->reg = reg;
  1021f0:	a1 f4 b1 10 00       	mov    0x10b1f4,%eax
  1021f5:	89 10                	mov    %edx,(%eax)
  ioapic->data = data;
  1021f7:	a1 f4 b1 10 00       	mov    0x10b1f4,%eax
  1021fc:	89 58 10             	mov    %ebx,0x10(%eax)
  // Mark interrupt edge-triggered, active high,
  // enabled, and routed to the given cpunum,
  // which happens to be that cpu's APIC ID.
  ioapicwrite(REG_TABLE+2*irq, T_IRQ0 + irq);
  ioapicwrite(REG_TABLE+2*irq+1, cpunum << 24);
}
  1021ff:	5b                   	pop    %ebx
  102200:	5d                   	pop    %ebp
  102201:	c3                   	ret    
  102202:	8d b4 26 00 00 00 00 	lea    0x0(%esi,%eiz,1),%esi
  102209:	8d bc 27 00 00 00 00 	lea    0x0(%edi,%eiz,1),%edi

00102210 <ioapicinit>:
  ioapic->data = data;
}

void
ioapicinit(void)
{
  102210:	55                   	push   %ebp
  102211:	89 e5                	mov    %esp,%ebp
  102213:	56                   	push   %esi
  102214:	53                   	push   %ebx
  102215:	83 ec 10             	sub    $0x10,%esp
  int i, id, maxintr;

  if(!ismp)
  102218:	8b 0d 44 b2 10 00    	mov    0x10b244,%ecx
  10221e:	85 c9                	test   %ecx,%ecx
  102220:	74 7e                	je     1022a0 <ioapicinit+0x90>
};

static uint
ioapicread(int reg)
{
  ioapic->reg = reg;
  102222:	c7 05 00 00 c0 fe 01 	movl   $0x1,0xfec00000
  102229:	00 00 00 
  return ioapic->data;
  10222c:	a1 10 00 c0 fe       	mov    0xfec00010,%eax
};

static uint
ioapicread(int reg)
{
  ioapic->reg = reg;
  102231:	c7 05 00 00 c0 fe 00 	movl   $0x0,0xfec00000
  102238:	00 00 00 
    return;

  ioapic = (volatile struct ioapic*)IOAPIC;
  maxintr = (ioapicread(REG_VER) >> 16) & 0xFF;
  id = ioapicread(REG_ID) >> 24;
  if(id != ioapicid)
  10223b:	0f b6 15 40 b2 10 00 	movzbl 0x10b240,%edx
  int i, id, maxintr;

  if(!ismp)
    return;

  ioapic = (volatile struct ioapic*)IOAPIC;
  102242:	c7 05 f4 b1 10 00 00 	movl   $0xfec00000,0x10b1f4
  102249:	00 c0 fe 
  maxintr = (ioapicread(REG_VER) >> 16) & 0xFF;
  10224c:	c1 e8 10             	shr    $0x10,%eax
  10224f:	0f b6 f0             	movzbl %al,%esi

static uint
ioapicread(int reg)
{
  ioapic->reg = reg;
  return ioapic->data;
  102252:	a1 10 00 c0 fe       	mov    0xfec00010,%eax
    return;

  ioapic = (volatile struct ioapic*)IOAPIC;
  maxintr = (ioapicread(REG_VER) >> 16) & 0xFF;
  id = ioapicread(REG_ID) >> 24;
  if(id != ioapicid)
  102257:	c1 e8 18             	shr    $0x18,%eax
  10225a:	39 c2                	cmp    %eax,%edx
  10225c:	75 4a                	jne    1022a8 <ioapicinit+0x98>
    cprintf("ioapicinit: id isn't equal to ioapicid; not a MP\n");
  10225e:	31 db                	xor    %ebx,%ebx
  102260:	b9 10 00 00 00       	mov    $0x10,%ecx
  102265:	8d 76 00             	lea    0x0(%esi),%esi
}

static void
ioapicwrite(int reg, uint data)
{
  ioapic->reg = reg;
  102268:	a1 f4 b1 10 00       	mov    0x10b1f4,%eax
    cprintf("ioapicinit: id isn't equal to ioapicid; not a MP\n");

  // Mark all interrupts edge-triggered, active high, disabled,
  // and not routed to any CPUs.
  for(i = 0; i <= maxintr; i++){
    ioapicwrite(REG_TABLE+2*i, INT_DISABLED | (T_IRQ0 + i));
  10226d:	8d 53 20             	lea    0x20(%ebx),%edx
  if(id != ioapicid)
    cprintf("ioapicinit: id isn't equal to ioapicid; not a MP\n");

  // Mark all interrupts edge-triggered, active high, disabled,
  // and not routed to any CPUs.
  for(i = 0; i <= maxintr; i++){
  102270:	83 c3 01             	add    $0x1,%ebx
    ioapicwrite(REG_TABLE+2*i, INT_DISABLED | (T_IRQ0 + i));
  102273:	81 ca 00 00 01 00    	or     $0x10000,%edx
}

static void
ioapicwrite(int reg, uint data)
{
  ioapic->reg = reg;
  102279:	89 08                	mov    %ecx,(%eax)
  ioapic->data = data;
  10227b:	a1 f4 b1 10 00       	mov    0x10b1f4,%eax
  102280:	89 50 10             	mov    %edx,0x10(%eax)
}

static void
ioapicwrite(int reg, uint data)
{
  ioapic->reg = reg;
  102283:	a1 f4 b1 10 00       	mov    0x10b1f4,%eax
  102288:	8d 51 01             	lea    0x1(%ecx),%edx
  if(id != ioapicid)
    cprintf("ioapicinit: id isn't equal to ioapicid; not a MP\n");

  // Mark all interrupts edge-triggered, active high, disabled,
  // and not routed to any CPUs.
  for(i = 0; i <= maxintr; i++){
  10228b:	83 c1 02             	add    $0x2,%ecx
  10228e:	39 de                	cmp    %ebx,%esi
}

static void
ioapicwrite(int reg, uint data)
{
  ioapic->reg = reg;
  102290:	89 10                	mov    %edx,(%eax)
  ioapic->data = data;
  102292:	a1 f4 b1 10 00       	mov    0x10b1f4,%eax
  102297:	c7 40 10 00 00 00 00 	movl   $0x0,0x10(%eax)
  if(id != ioapicid)
    cprintf("ioapicinit: id isn't equal to ioapicid; not a MP\n");

  // Mark all interrupts edge-triggered, active high, disabled,
  // and not routed to any CPUs.
  for(i = 0; i <= maxintr; i++){
  10229e:	7d c8                	jge    102268 <ioapicinit+0x58>
    ioapicwrite(REG_TABLE+2*i, INT_DISABLED | (T_IRQ0 + i));
    ioapicwrite(REG_TABLE+2*i+1, 0);
  }
}
  1022a0:	83 c4 10             	add    $0x10,%esp
  1022a3:	5b                   	pop    %ebx
  1022a4:	5e                   	pop    %esi
  1022a5:	5d                   	pop    %ebp
  1022a6:	c3                   	ret    
  1022a7:	90                   	nop    

  ioapic = (volatile struct ioapic*)IOAPIC;
  maxintr = (ioapicread(REG_VER) >> 16) & 0xFF;
  id = ioapicread(REG_ID) >> 24;
  if(id != ioapicid)
    cprintf("ioapicinit: id isn't equal to ioapicid; not a MP\n");
  1022a8:	c7 04 24 3c 61 10 00 	movl   $0x10613c,(%esp)
  1022af:	e8 ec e1 ff ff       	call   1004a0 <cprintf>
  1022b4:	eb a8                	jmp    10225e <ioapicinit+0x4e>
  1022b6:	90                   	nop    
  1022b7:	90                   	nop    
  1022b8:	90                   	nop    
  1022b9:	90                   	nop    
  1022ba:	90                   	nop    
  1022bb:	90                   	nop    
  1022bc:	90                   	nop    
  1022bd:	90                   	nop    
  1022be:	90                   	nop    
  1022bf:	90                   	nop    

001022c0 <kalloc>:
// Allocate n bytes of physical memory.
// Returns a kernel-segment pointer.
// Returns 0 if the memory cannot be allocated.
char*
kalloc(int n)
{
  1022c0:	55                   	push   %ebp
  1022c1:	89 e5                	mov    %esp,%ebp
  1022c3:	53                   	push   %ebx
  1022c4:	83 ec 04             	sub    $0x4,%esp
  1022c7:	8b 5d 08             	mov    0x8(%ebp),%ebx
  char *p;
  struct run *r, **rp;

  if(n % PAGE || n <= 0)
  1022ca:	f7 c3 ff 0f 00 00    	test   $0xfff,%ebx
  1022d0:	74 0e                	je     1022e0 <kalloc+0x20>
    panic("kalloc");
  1022d2:	c7 04 24 6e 61 10 00 	movl   $0x10616e,(%esp)
  1022d9:	e8 a2 e5 ff ff       	call   100880 <panic>
  1022de:	66 90                	xchg   %ax,%ax
kalloc(int n)
{
  char *p;
  struct run *r, **rp;

  if(n % PAGE || n <= 0)
  1022e0:	85 db                	test   %ebx,%ebx
  1022e2:	7e ee                	jle    1022d2 <kalloc+0x12>
    panic("kalloc");

  acquire(&kmem.lock);
  1022e4:	c7 04 24 00 b2 10 00 	movl   $0x10b200,(%esp)
  1022eb:	e8 c0 1b 00 00       	call   103eb0 <acquire>
  1022f0:	8b 15 34 b2 10 00    	mov    0x10b234,%edx
  for(rp=&kmem.freelist; (r=*rp) != 0; rp=&r->next){
  1022f6:	85 d2                	test   %edx,%edx
  1022f8:	74 1d                	je     102317 <kalloc+0x57>
    if(r->len >= n){
  1022fa:	8b 42 04             	mov    0x4(%edx),%eax
  1022fd:	b9 34 b2 10 00       	mov    $0x10b234,%ecx
  102302:	39 c3                	cmp    %eax,%ebx
  102304:	7f 09                	jg     10230f <kalloc+0x4f>
  102306:	eb 38                	jmp    102340 <kalloc+0x80>
  102308:	8b 42 04             	mov    0x4(%edx),%eax
  10230b:	39 c3                	cmp    %eax,%ebx
  10230d:	7e 31                	jle    102340 <kalloc+0x80>

  if(n % PAGE || n <= 0)
    panic("kalloc");

  acquire(&kmem.lock);
  for(rp=&kmem.freelist; (r=*rp) != 0; rp=&r->next){
  10230f:	89 d1                	mov    %edx,%ecx
  102311:	8b 12                	mov    (%edx),%edx
  102313:	85 d2                	test   %edx,%edx
  102315:	75 f1                	jne    102308 <kalloc+0x48>
      return p;
    }
  }
  release(&kmem.lock);

  cprintf("kalloc: out of memory\n");
  102317:	31 db                	xor    %ebx,%ebx
        *rp = r->next;
      release(&kmem.lock);
      return p;
    }
  }
  release(&kmem.lock);
  102319:	c7 04 24 00 b2 10 00 	movl   $0x10b200,(%esp)
  102320:	e8 3b 1b 00 00       	call   103e60 <release>

  cprintf("kalloc: out of memory\n");
  102325:	c7 04 24 75 61 10 00 	movl   $0x106175,(%esp)
  10232c:	e8 6f e1 ff ff       	call   1004a0 <cprintf>
  return 0;
}
  102331:	89 d8                	mov    %ebx,%eax
  102333:	83 c4 04             	add    $0x4,%esp
  102336:	5b                   	pop    %ebx
  102337:	5d                   	pop    %ebp
  102338:	c3                   	ret    
  102339:	8d b4 26 00 00 00 00 	lea    0x0(%esi,%eiz,1),%esi
    panic("kalloc");

  acquire(&kmem.lock);
  for(rp=&kmem.freelist; (r=*rp) != 0; rp=&r->next){
    if(r->len >= n){
      r->len -= n;
  102340:	29 d8                	sub    %ebx,%eax
      p = (char*)r + r->len;
      if(r->len == 0)
  102342:	85 c0                	test   %eax,%eax
    panic("kalloc");

  acquire(&kmem.lock);
  for(rp=&kmem.freelist; (r=*rp) != 0; rp=&r->next){
    if(r->len >= n){
      r->len -= n;
  102344:	89 c3                	mov    %eax,%ebx
  102346:	89 42 04             	mov    %eax,0x4(%edx)
      p = (char*)r + r->len;
      if(r->len == 0)
  102349:	75 04                	jne    10234f <kalloc+0x8f>
        *rp = r->next;
  10234b:	8b 02                	mov    (%edx),%eax
  10234d:	89 01                	mov    %eax,(%ecx)

  acquire(&kmem.lock);
  for(rp=&kmem.freelist; (r=*rp) != 0; rp=&r->next){
    if(r->len >= n){
      r->len -= n;
      p = (char*)r + r->len;
  10234f:	8d 1c 1a             	lea    (%edx,%ebx,1),%ebx
      if(r->len == 0)
        *rp = r->next;
      release(&kmem.lock);
  102352:	c7 04 24 00 b2 10 00 	movl   $0x10b200,(%esp)
  102359:	e8 02 1b 00 00       	call   103e60 <release>
  }
  release(&kmem.lock);

  cprintf("kalloc: out of memory\n");
  return 0;
}
  10235e:	89 d8                	mov    %ebx,%eax
  102360:	83 c4 04             	add    $0x4,%esp
  102363:	5b                   	pop    %ebx
  102364:	5d                   	pop    %ebp
  102365:	c3                   	ret    
  102366:	8d 76 00             	lea    0x0(%esi),%esi
  102369:	8d bc 27 00 00 00 00 	lea    0x0(%edi,%eiz,1),%edi

00102370 <kfree>:
// which normally should have been returned by a
// call to kalloc(len).  (The exception is when
// initializing the allocator; see kinit above.)
void
kfree(char *v, int len)
{
  102370:	55                   	push   %ebp
  102371:	89 e5                	mov    %esp,%ebp
  102373:	57                   	push   %edi
  102374:	56                   	push   %esi
  102375:	53                   	push   %ebx
  102376:	83 ec 1c             	sub    $0x1c,%esp
  102379:	8b 45 0c             	mov    0xc(%ebp),%eax
  10237c:	8b 5d 08             	mov    0x8(%ebp),%ebx
  struct run *r, *rend, **rp, *p, *pend;

  if(len <= 0 || len % PAGE)
  10237f:	85 c0                	test   %eax,%eax
// which normally should have been returned by a
// call to kalloc(len).  (The exception is when
// initializing the allocator; see kinit above.)
void
kfree(char *v, int len)
{
  102381:	89 45 f0             	mov    %eax,-0x10(%ebp)
  struct run *r, *rend, **rp, *p, *pend;

  if(len <= 0 || len % PAGE)
  102384:	7e 07                	jle    10238d <kfree+0x1d>
  102386:	a9 ff 0f 00 00       	test   $0xfff,%eax
  10238b:	74 13                	je     1023a0 <kfree+0x30>
    panic("kfree");
  10238d:	c7 04 24 8c 61 10 00 	movl   $0x10618c,(%esp)
  102394:	e8 e7 e4 ff ff       	call   100880 <panic>
  102399:	8d b4 26 00 00 00 00 	lea    0x0(%esi,%eiz,1),%esi

  // Fill with junk to catch dangling refs.
  memset(v, 1, len);
  1023a0:	8b 45 f0             	mov    -0x10(%ebp),%eax

  acquire(&kmem.lock);
  p = (struct run*)v;
  pend = (struct run*)(v + len);
  for(rp=&kmem.freelist; (r=*rp) != 0 && r <= pend; rp=&r->next){
  1023a3:	bf 34 b2 10 00       	mov    $0x10b234,%edi

  if(len <= 0 || len % PAGE)
    panic("kfree");

  // Fill with junk to catch dangling refs.
  memset(v, 1, len);
  1023a8:	c7 44 24 04 01 00 00 	movl   $0x1,0x4(%esp)
  1023af:	00 
  1023b0:	89 1c 24             	mov    %ebx,(%esp)
  1023b3:	89 44 24 08          	mov    %eax,0x8(%esp)
  1023b7:	e8 94 1b 00 00       	call   103f50 <memset>

  acquire(&kmem.lock);
  1023bc:	c7 04 24 00 b2 10 00 	movl   $0x10b200,(%esp)
  1023c3:	e8 e8 1a 00 00       	call   103eb0 <acquire>
  p = (struct run*)v;
  1023c8:	8b 15 34 b2 10 00    	mov    0x10b234,%edx
  pend = (struct run*)(v + len);
  for(rp=&kmem.freelist; (r=*rp) != 0 && r <= pend; rp=&r->next){
  1023ce:	85 d2                	test   %edx,%edx
  1023d0:	74 7e                	je     102450 <kfree+0xe0>
  // Fill with junk to catch dangling refs.
  memset(v, 1, len);

  acquire(&kmem.lock);
  p = (struct run*)v;
  pend = (struct run*)(v + len);
  1023d2:	8b 45 f0             	mov    -0x10(%ebp),%eax
  for(rp=&kmem.freelist; (r=*rp) != 0 && r <= pend; rp=&r->next){
  1023d5:	bf 34 b2 10 00       	mov    $0x10b234,%edi
  // Fill with junk to catch dangling refs.
  memset(v, 1, len);

  acquire(&kmem.lock);
  p = (struct run*)v;
  pend = (struct run*)(v + len);
  1023da:	8d 34 03             	lea    (%ebx,%eax,1),%esi
  for(rp=&kmem.freelist; (r=*rp) != 0 && r <= pend; rp=&r->next){
  1023dd:	39 d6                	cmp    %edx,%esi
  1023df:	72 6f                	jb     102450 <kfree+0xe0>
    rend = (struct run*)((char*)r + r->len);
  1023e1:	8b 42 04             	mov    0x4(%edx),%eax
    if(r <= p && p < rend)
  1023e4:	39 d3                	cmp    %edx,%ebx

  acquire(&kmem.lock);
  p = (struct run*)v;
  pend = (struct run*)(v + len);
  for(rp=&kmem.freelist; (r=*rp) != 0 && r <= pend; rp=&r->next){
    rend = (struct run*)((char*)r + r->len);
  1023e6:	8d 0c 02             	lea    (%edx,%eax,1),%ecx
    if(r <= p && p < rend)
  1023e9:	73 5d                	jae    102448 <kfree+0xd8>
      panic("freeing free page");
    if(rend == p){  // r before p: expand r to include p
  1023eb:	39 d9                	cmp    %ebx,%ecx
  1023ed:	74 71                	je     102460 <kfree+0xf0>
        r->len += r->next->len;
        r->next = r->next->next;
      }
      goto out;
    }
    if(pend == r){  // p before r: expand p to include, replace r
  1023ef:	39 d6                	cmp    %edx,%esi
  1023f1:	bf 34 b2 10 00       	mov    $0x10b234,%edi
  1023f6:	74 30                	je     102428 <kfree+0xb8>
  memset(v, 1, len);

  acquire(&kmem.lock);
  p = (struct run*)v;
  pend = (struct run*)(v + len);
  for(rp=&kmem.freelist; (r=*rp) != 0 && r <= pend; rp=&r->next){
  1023f8:	89 d7                	mov    %edx,%edi
  1023fa:	8b 12                	mov    (%edx),%edx
  1023fc:	85 d2                	test   %edx,%edx
  1023fe:	74 50                	je     102450 <kfree+0xe0>
  102400:	39 d6                	cmp    %edx,%esi
  102402:	72 4c                	jb     102450 <kfree+0xe0>
    rend = (struct run*)((char*)r + r->len);
  102404:	8b 42 04             	mov    0x4(%edx),%eax
    if(r <= p && p < rend)
  102407:	39 d3                	cmp    %edx,%ebx

  acquire(&kmem.lock);
  p = (struct run*)v;
  pend = (struct run*)(v + len);
  for(rp=&kmem.freelist; (r=*rp) != 0 && r <= pend; rp=&r->next){
    rend = (struct run*)((char*)r + r->len);
  102409:	8d 0c 02             	lea    (%edx,%eax,1),%ecx
    if(r <= p && p < rend)
  10240c:	72 12                	jb     102420 <kfree+0xb0>
  10240e:	39 cb                	cmp    %ecx,%ebx
  102410:	73 0e                	jae    102420 <kfree+0xb0>
      panic("freeing free page");
  102412:	c7 04 24 92 61 10 00 	movl   $0x106192,(%esp)
  102419:	e8 62 e4 ff ff       	call   100880 <panic>
  10241e:	66 90                	xchg   %ax,%ax
    if(rend == p){  // r before p: expand r to include p
  102420:	39 d9                	cmp    %ebx,%ecx
  102422:	74 3c                	je     102460 <kfree+0xf0>
        r->len += r->next->len;
        r->next = r->next->next;
      }
      goto out;
    }
    if(pend == r){  // p before r: expand p to include, replace r
  102424:	39 d6                	cmp    %edx,%esi
  102426:	75 d0                	jne    1023f8 <kfree+0x88>
      p->len = len + r->len;
  102428:	03 45 f0             	add    -0x10(%ebp),%eax
  10242b:	89 43 04             	mov    %eax,0x4(%ebx)
      p->next = r->next;
  10242e:	8b 06                	mov    (%esi),%eax
  102430:	89 03                	mov    %eax,(%ebx)
      *rp = p;
  102432:	89 1f                	mov    %ebx,(%edi)
  p->len = len;
  p->next = r;
  *rp = p;

 out:
  release(&kmem.lock);
  102434:	c7 45 08 00 b2 10 00 	movl   $0x10b200,0x8(%ebp)
}
  10243b:	83 c4 1c             	add    $0x1c,%esp
  10243e:	5b                   	pop    %ebx
  10243f:	5e                   	pop    %esi
  102440:	5f                   	pop    %edi
  102441:	5d                   	pop    %ebp
  p->len = len;
  p->next = r;
  *rp = p;

 out:
  release(&kmem.lock);
  102442:	e9 19 1a 00 00       	jmp    103e60 <release>
  102447:	90                   	nop    
  acquire(&kmem.lock);
  p = (struct run*)v;
  pend = (struct run*)(v + len);
  for(rp=&kmem.freelist; (r=*rp) != 0 && r <= pend; rp=&r->next){
    rend = (struct run*)((char*)r + r->len);
    if(r <= p && p < rend)
  102448:	39 cb                	cmp    %ecx,%ebx
  10244a:	72 c6                	jb     102412 <kfree+0xa2>
  10244c:	eb 9d                	jmp    1023eb <kfree+0x7b>
  10244e:	66 90                	xchg   %ax,%ax
      *rp = p;
      goto out;
    }
  }
  // Insert p before r in list.
  p->len = len;
  102450:	8b 45 f0             	mov    -0x10(%ebp),%eax
  p->next = r;
  102453:	89 13                	mov    %edx,(%ebx)
      *rp = p;
      goto out;
    }
  }
  // Insert p before r in list.
  p->len = len;
  102455:	89 43 04             	mov    %eax,0x4(%ebx)
  p->next = r;
  *rp = p;
  102458:	89 1f                	mov    %ebx,(%edi)
  10245a:	eb d8                	jmp    102434 <kfree+0xc4>
  10245c:	8d 74 26 00          	lea    0x0(%esi,%eiz,1),%esi
    rend = (struct run*)((char*)r + r->len);
    if(r <= p && p < rend)
      panic("freeing free page");
    if(rend == p){  // r before p: expand r to include p
      r->len += len;
      if(r->next && r->next == pend){  // r now next to r->next?
  102460:	8b 0a                	mov    (%edx),%ecx
  for(rp=&kmem.freelist; (r=*rp) != 0 && r <= pend; rp=&r->next){
    rend = (struct run*)((char*)r + r->len);
    if(r <= p && p < rend)
      panic("freeing free page");
    if(rend == p){  // r before p: expand r to include p
      r->len += len;
  102462:	03 45 f0             	add    -0x10(%ebp),%eax
      if(r->next && r->next == pend){  // r now next to r->next?
  102465:	85 c9                	test   %ecx,%ecx
  for(rp=&kmem.freelist; (r=*rp) != 0 && r <= pend; rp=&r->next){
    rend = (struct run*)((char*)r + r->len);
    if(r <= p && p < rend)
      panic("freeing free page");
    if(rend == p){  // r before p: expand r to include p
      r->len += len;
  102467:	89 42 04             	mov    %eax,0x4(%edx)
      if(r->next && r->next == pend){  // r now next to r->next?
  10246a:	74 c8                	je     102434 <kfree+0xc4>
  10246c:	39 ce                	cmp    %ecx,%esi
  10246e:	75 c4                	jne    102434 <kfree+0xc4>
        r->len += r->next->len;
  102470:	03 46 04             	add    0x4(%esi),%eax
  102473:	89 42 04             	mov    %eax,0x4(%edx)
        r->next = r->next->next;
  102476:	8b 06                	mov    (%esi),%eax
  102478:	89 02                	mov    %eax,(%edx)
  10247a:	eb b8                	jmp    102434 <kfree+0xc4>
  10247c:	8d 74 26 00          	lea    0x0(%esi,%eiz,1),%esi

00102480 <kinit>:
// This code cheats by just considering one megabyte of
// pages after end.  Real systems would determine the
// amount of memory available in the system and use it all.
void
kinit(void)
{
  102480:	55                   	push   %ebp
  102481:	89 e5                	mov    %esp,%ebp
  102483:	83 ec 08             	sub    $0x8,%esp
  extern char end[];
  uint len;
  char *p;

  initlock(&kmem.lock, "kmem");
  102486:	c7 44 24 04 a4 61 10 	movl   $0x1061a4,0x4(%esp)
  10248d:	00 
  10248e:	c7 04 24 00 b2 10 00 	movl   $0x10b200,(%esp)
  102495:	e8 86 18 00 00       	call   103d20 <initlock>
  p = (char*)(((uint)end + PAGE) & ~(PAGE-1));
  len = 256*PAGE; // assume computer has 256 pages of RAM, 1 MB
  cprintf("mem = %d\n", len);
  10249a:	c7 44 24 04 00 00 10 	movl   $0x100000,0x4(%esp)
  1024a1:	00 
  1024a2:	c7 04 24 a9 61 10 00 	movl   $0x1061a9,(%esp)
  1024a9:	e8 f2 df ff ff       	call   1004a0 <cprintf>
  kfree(p, len);
  1024ae:	b8 e4 ef 10 00       	mov    $0x10efe4,%eax
  1024b3:	25 00 f0 ff ff       	and    $0xfffff000,%eax
  1024b8:	c7 44 24 04 00 00 10 	movl   $0x100000,0x4(%esp)
  1024bf:	00 
  1024c0:	89 04 24             	mov    %eax,(%esp)
  1024c3:	e8 a8 fe ff ff       	call   102370 <kfree>
}
  1024c8:	c9                   	leave  
  1024c9:	c3                   	ret    
  1024ca:	90                   	nop    
  1024cb:	90                   	nop    
  1024cc:	90                   	nop    
  1024cd:	90                   	nop    
  1024ce:	90                   	nop    
  1024cf:	90                   	nop    

001024d0 <kbdgetc>:
#include "defs.h"
#include "kbd.h"

int
kbdgetc(void)
{
  1024d0:	55                   	push   %ebp
static inline uchar
inb(ushort port)
{
  uchar data;

  asm volatile("in %1,%0" : "=a" (data) : "d" (port));
  1024d1:	ba 64 00 00 00       	mov    $0x64,%edx
  1024d6:	89 e5                	mov    %esp,%ebp
  1024d8:	ec                   	in     (%dx),%al
    normalmap, shiftmap, ctlmap, ctlmap
  };
  uint st, data, c;

  st = inb(KBSTATP);
  if((st & KBS_DIB) == 0)
  1024d9:	a8 01                	test   $0x1,%al
  1024db:	ba ff ff ff ff       	mov    $0xffffffff,%edx
  1024e0:	74 76                	je     102558 <kbdgetc+0x88>
  1024e2:	ba 60 00 00 00       	mov    $0x60,%edx
  1024e7:	ec                   	in     (%dx),%al
    return -1;
  data = inb(KBDATAP);
  1024e8:	0f b6 c8             	movzbl %al,%ecx

  if(data == 0xE0){
  1024eb:	81 f9 e0 00 00 00    	cmp    $0xe0,%ecx
  1024f1:	0f 84 99 00 00 00    	je     102590 <kbdgetc+0xc0>
    shift |= E0ESC;
    return 0;
  } else if(data & 0x80){
  1024f7:	84 c9                	test   %cl,%cl
  1024f9:	78 65                	js     102560 <kbdgetc+0x90>
    // Key released
    data = (shift & E0ESC ? data : data & 0x7F);
    shift &= ~(shiftcode[data] | E0ESC);
    return 0;
  } else if(shift & E0ESC){
  1024fb:	a1 fc 7f 10 00       	mov    0x107ffc,%eax
  102500:	a8 40                	test   $0x40,%al
  102502:	74 0b                	je     10250f <kbdgetc+0x3f>
    // Last character was an E0 escape; or with 0x80
    data |= 0x80;
    shift &= ~E0ESC;
  102504:	83 e0 bf             	and    $0xffffffbf,%eax
    data = (shift & E0ESC ? data : data & 0x7F);
    shift &= ~(shiftcode[data] | E0ESC);
    return 0;
  } else if(shift & E0ESC){
    // Last character was an E0 escape; or with 0x80
    data |= 0x80;
  102507:	80 c9 80             	or     $0x80,%cl
    shift &= ~E0ESC;
  10250a:	a3 fc 7f 10 00       	mov    %eax,0x107ffc
  }

  shift |= shiftcode[data];
  shift ^= togglecode[data];
  10250f:	0f b6 91 c0 62 10 00 	movzbl 0x1062c0(%ecx),%edx
  102516:	0f b6 81 c0 61 10 00 	movzbl 0x1061c0(%ecx),%eax
  10251d:	0b 05 fc 7f 10 00    	or     0x107ffc,%eax
  102523:	31 d0                	xor    %edx,%eax
  c = charcode[shift & (CTL | SHIFT)][data];
  102525:	89 c2                	mov    %eax,%edx
  102527:	83 e2 03             	and    $0x3,%edx
  if(shift & CAPSLOCK){
  10252a:	a8 08                	test   $0x8,%al
    shift &= ~E0ESC;
  }

  shift |= shiftcode[data];
  shift ^= togglecode[data];
  c = charcode[shift & (CTL | SHIFT)][data];
  10252c:	8b 14 95 c0 63 10 00 	mov    0x1063c0(,%edx,4),%edx
    data |= 0x80;
    shift &= ~E0ESC;
  }

  shift |= shiftcode[data];
  shift ^= togglecode[data];
  102533:	a3 fc 7f 10 00       	mov    %eax,0x107ffc
  c = charcode[shift & (CTL | SHIFT)][data];
  102538:	0f b6 14 0a          	movzbl (%edx,%ecx,1),%edx
  if(shift & CAPSLOCK){
  10253c:	74 1a                	je     102558 <kbdgetc+0x88>
    if('a' <= c && c <= 'z')
  10253e:	8d 42 9f             	lea    -0x61(%edx),%eax
  102541:	83 f8 19             	cmp    $0x19,%eax
  102544:	76 5a                	jbe    1025a0 <kbdgetc+0xd0>
      c += 'A' - 'a';
    else if('A' <= c && c <= 'Z')
  102546:	8d 42 bf             	lea    -0x41(%edx),%eax
  102549:	83 f8 19             	cmp    $0x19,%eax
  10254c:	77 0a                	ja     102558 <kbdgetc+0x88>
      c += 'a' - 'A';
  10254e:	83 c2 20             	add    $0x20,%edx
  102551:	8d b4 26 00 00 00 00 	lea    0x0(%esi,%eiz,1),%esi
  }
  return c;
}
  102558:	89 d0                	mov    %edx,%eax
  10255a:	5d                   	pop    %ebp
  10255b:	c3                   	ret    
  10255c:	8d 74 26 00          	lea    0x0(%esi,%eiz,1),%esi
  if(data == 0xE0){
    shift |= E0ESC;
    return 0;
  } else if(data & 0x80){
    // Key released
    data = (shift & E0ESC ? data : data & 0x7F);
  102560:	8b 15 fc 7f 10 00    	mov    0x107ffc,%edx
  102566:	f6 c2 40             	test   $0x40,%dl
  102569:	75 03                	jne    10256e <kbdgetc+0x9e>
  10256b:	83 e1 7f             	and    $0x7f,%ecx
    shift &= ~(shiftcode[data] | E0ESC);
  10256e:	0f b6 81 c0 61 10 00 	movzbl 0x1061c0(%ecx),%eax
      c += 'A' - 'a';
    else if('A' <= c && c <= 'Z')
      c += 'a' - 'A';
  }
  return c;
}
  102575:	5d                   	pop    %ebp
    shift |= E0ESC;
    return 0;
  } else if(data & 0x80){
    // Key released
    data = (shift & E0ESC ? data : data & 0x7F);
    shift &= ~(shiftcode[data] | E0ESC);
  102576:	83 c8 40             	or     $0x40,%eax
  102579:	0f b6 c0             	movzbl %al,%eax
  10257c:	f7 d0                	not    %eax
  10257e:	21 d0                	and    %edx,%eax
  102580:	31 d2                	xor    %edx,%edx
  102582:	a3 fc 7f 10 00       	mov    %eax,0x107ffc
      c += 'A' - 'a';
    else if('A' <= c && c <= 'Z')
      c += 'a' - 'A';
  }
  return c;
}
  102587:	89 d0                	mov    %edx,%eax
  102589:	c3                   	ret    
  10258a:	8d b6 00 00 00 00    	lea    0x0(%esi),%esi
  if((st & KBS_DIB) == 0)
    return -1;
  data = inb(KBDATAP);

  if(data == 0xE0){
    shift |= E0ESC;
  102590:	31 d2                	xor    %edx,%edx
      c += 'A' - 'a';
    else if('A' <= c && c <= 'Z')
      c += 'a' - 'A';
  }
  return c;
}
  102592:	89 d0                	mov    %edx,%eax
  if((st & KBS_DIB) == 0)
    return -1;
  data = inb(KBDATAP);

  if(data == 0xE0){
    shift |= E0ESC;
  102594:	83 0d fc 7f 10 00 40 	orl    $0x40,0x107ffc
      c += 'A' - 'a';
    else if('A' <= c && c <= 'Z')
      c += 'a' - 'A';
  }
  return c;
}
  10259b:	5d                   	pop    %ebp
  10259c:	c3                   	ret    
  10259d:	8d 76 00             	lea    0x0(%esi),%esi
  shift |= shiftcode[data];
  shift ^= togglecode[data];
  c = charcode[shift & (CTL | SHIFT)][data];
  if(shift & CAPSLOCK){
    if('a' <= c && c <= 'z')
      c += 'A' - 'a';
  1025a0:	83 ea 20             	sub    $0x20,%edx
  1025a3:	eb b3                	jmp    102558 <kbdgetc+0x88>
  1025a5:	8d 74 26 00          	lea    0x0(%esi,%eiz,1),%esi
  1025a9:	8d bc 27 00 00 00 00 	lea    0x0(%edi,%eiz,1),%edi

001025b0 <kbdintr>:
  return c;
}

void
kbdintr(void)
{
  1025b0:	55                   	push   %ebp
  1025b1:	89 e5                	mov    %esp,%ebp
  1025b3:	83 ec 08             	sub    $0x8,%esp
  consoleintr(kbdgetc);
  1025b6:	c7 04 24 d0 24 10 00 	movl   $0x1024d0,(%esp)
  1025bd:	e8 4e e1 ff ff       	call   100710 <consoleintr>
}
  1025c2:	c9                   	leave  
  1025c3:	c3                   	ret    
  1025c4:	90                   	nop    
  1025c5:	90                   	nop    
  1025c6:	90                   	nop    
  1025c7:	90                   	nop    
  1025c8:	90                   	nop    
  1025c9:	90                   	nop    
  1025ca:	90                   	nop    
  1025cb:	90                   	nop    
  1025cc:	90                   	nop    
  1025cd:	90                   	nop    
  1025ce:	90                   	nop    
  1025cf:	90                   	nop    

001025d0 <lapicinit>:
}

void
lapicinit(int c)
{
  if(!lapic) 
  1025d0:	a1 38 b2 10 00       	mov    0x10b238,%eax
  lapic[ID];  // wait for write to finish, by reading
}

void
lapicinit(int c)
{
  1025d5:	55                   	push   %ebp
  1025d6:	89 e5                	mov    %esp,%ebp
  if(!lapic) 
  1025d8:	85 c0                	test   %eax,%eax
  1025da:	0f 84 09 01 00 00    	je     1026e9 <lapicinit+0x119>
volatile uint *lapic;  // Initialized in mp.c

static void
lapicw(int index, int value)
{
  lapic[index] = value;
  1025e0:	c7 80 f0 00 00 00 3f 	movl   $0x13f,0xf0(%eax)
  1025e7:	01 00 00 
  lapic[ID];  // wait for write to finish, by reading
  1025ea:	a1 38 b2 10 00       	mov    0x10b238,%eax
  1025ef:	8b 50 20             	mov    0x20(%eax),%edx
volatile uint *lapic;  // Initialized in mp.c

static void
lapicw(int index, int value)
{
  lapic[index] = value;
  1025f2:	c7 80 e0 03 00 00 0b 	movl   $0xb,0x3e0(%eax)
  1025f9:	00 00 00 
  lapic[ID];  // wait for write to finish, by reading
  1025fc:	a1 38 b2 10 00       	mov    0x10b238,%eax
  102601:	8b 50 20             	mov    0x20(%eax),%edx
volatile uint *lapic;  // Initialized in mp.c

static void
lapicw(int index, int value)
{
  lapic[index] = value;
  102604:	c7 80 20 03 00 00 20 	movl   $0x20020,0x320(%eax)
  10260b:	00 02 00 
  lapic[ID];  // wait for write to finish, by reading
  10260e:	a1 38 b2 10 00       	mov    0x10b238,%eax
  102613:	8b 50 20             	mov    0x20(%eax),%edx
volatile uint *lapic;  // Initialized in mp.c

static void
lapicw(int index, int value)
{
  lapic[index] = value;
  102616:	c7 80 80 03 00 00 80 	movl   $0x989680,0x380(%eax)
  10261d:	96 98 00 
  lapic[ID];  // wait for write to finish, by reading
  102620:	a1 38 b2 10 00       	mov    0x10b238,%eax
  102625:	8b 50 20             	mov    0x20(%eax),%edx
volatile uint *lapic;  // Initialized in mp.c

static void
lapicw(int index, int value)
{
  lapic[index] = value;
  102628:	c7 80 50 03 00 00 00 	movl   $0x10000,0x350(%eax)
  10262f:	00 01 00 
  lapic[ID];  // wait for write to finish, by reading
  102632:	a1 38 b2 10 00       	mov    0x10b238,%eax
  102637:	8b 50 20             	mov    0x20(%eax),%edx
volatile uint *lapic;  // Initialized in mp.c

static void
lapicw(int index, int value)
{
  lapic[index] = value;
  10263a:	c7 80 60 03 00 00 00 	movl   $0x10000,0x360(%eax)
  102641:	00 01 00 
  lapic[ID];  // wait for write to finish, by reading
  102644:	8b 15 38 b2 10 00    	mov    0x10b238,%edx
  10264a:	8b 42 20             	mov    0x20(%edx),%eax
  lapicw(LINT0, MASKED);
  lapicw(LINT1, MASKED);

  // Disable performance counter overflow interrupts
  // on machines that provide that interrupt entry.
  if(((lapic[VER]>>16) & 0xFF) >= 4)
  10264d:	8b 42 30             	mov    0x30(%edx),%eax
  102650:	c1 e8 10             	shr    $0x10,%eax
  102653:	3c 03                	cmp    $0x3,%al
  102655:	0f 87 95 00 00 00    	ja     1026f0 <lapicinit+0x120>
volatile uint *lapic;  // Initialized in mp.c

static void
lapicw(int index, int value)
{
  lapic[index] = value;
  10265b:	c7 82 70 03 00 00 33 	movl   $0x33,0x370(%edx)
  102662:	00 00 00 
  lapic[ID];  // wait for write to finish, by reading
  102665:	a1 38 b2 10 00       	mov    0x10b238,%eax
  10266a:	8b 50 20             	mov    0x20(%eax),%edx
volatile uint *lapic;  // Initialized in mp.c

static void
lapicw(int index, int value)
{
  lapic[index] = value;
  10266d:	c7 80 80 02 00 00 00 	movl   $0x0,0x280(%eax)
  102674:	00 00 00 
  lapic[ID];  // wait for write to finish, by reading
  102677:	a1 38 b2 10 00       	mov    0x10b238,%eax
  10267c:	8b 50 20             	mov    0x20(%eax),%edx
volatile uint *lapic;  // Initialized in mp.c

static void
lapicw(int index, int value)
{
  lapic[index] = value;
  10267f:	c7 80 80 02 00 00 00 	movl   $0x0,0x280(%eax)
  102686:	00 00 00 
  lapic[ID];  // wait for write to finish, by reading
  102689:	a1 38 b2 10 00       	mov    0x10b238,%eax
  10268e:	8b 50 20             	mov    0x20(%eax),%edx
volatile uint *lapic;  // Initialized in mp.c

static void
lapicw(int index, int value)
{
  lapic[index] = value;
  102691:	c7 80 b0 00 00 00 00 	movl   $0x0,0xb0(%eax)
  102698:	00 00 00 
  lapic[ID];  // wait for write to finish, by reading
  10269b:	a1 38 b2 10 00       	mov    0x10b238,%eax
  1026a0:	8b 50 20             	mov    0x20(%eax),%edx
volatile uint *lapic;  // Initialized in mp.c

static void
lapicw(int index, int value)
{
  lapic[index] = value;
  1026a3:	c7 80 10 03 00 00 00 	movl   $0x0,0x310(%eax)
  1026aa:	00 00 00 
  lapic[ID];  // wait for write to finish, by reading
  1026ad:	a1 38 b2 10 00       	mov    0x10b238,%eax
  1026b2:	8b 50 20             	mov    0x20(%eax),%edx
volatile uint *lapic;  // Initialized in mp.c

static void
lapicw(int index, int value)
{
  lapic[index] = value;
  1026b5:	c7 80 00 03 00 00 00 	movl   $0x88500,0x300(%eax)
  1026bc:	85 08 00 
  lapic[ID];  // wait for write to finish, by reading
  1026bf:	8b 0d 38 b2 10 00    	mov    0x10b238,%ecx
  1026c5:	8b 41 20             	mov    0x20(%ecx),%eax
  1026c8:	8d 91 00 03 00 00    	lea    0x300(%ecx),%edx
  1026ce:	66 90                	xchg   %ax,%ax
  lapicw(EOI, 0);

  // Send an Init Level De-Assert to synchronise arbitration ID's.
  lapicw(ICRHI, 0);
  lapicw(ICRLO, BCAST | INIT | LEVEL);
  while(lapic[ICRLO] & DELIVS)
  1026d0:	8b 02                	mov    (%edx),%eax
  1026d2:	f6 c4 10             	test   $0x10,%ah
  1026d5:	75 f9                	jne    1026d0 <lapicinit+0x100>
volatile uint *lapic;  // Initialized in mp.c

static void
lapicw(int index, int value)
{
  lapic[index] = value;
  1026d7:	c7 81 80 00 00 00 00 	movl   $0x0,0x80(%ecx)
  1026de:	00 00 00 
  lapic[ID];  // wait for write to finish, by reading
  1026e1:	a1 38 b2 10 00       	mov    0x10b238,%eax
  1026e6:	8b 40 20             	mov    0x20(%eax),%eax
  while(lapic[ICRLO] & DELIVS)
    ;

  // Enable interrupts on the APIC (but not on the processor).
  lapicw(TPR, 0);
}
  1026e9:	5d                   	pop    %ebp
  1026ea:	c3                   	ret    
  1026eb:	90                   	nop    
  1026ec:	8d 74 26 00          	lea    0x0(%esi,%eiz,1),%esi
volatile uint *lapic;  // Initialized in mp.c

static void
lapicw(int index, int value)
{
  lapic[index] = value;
  1026f0:	c7 82 40 03 00 00 00 	movl   $0x10000,0x340(%edx)
  1026f7:	00 01 00 
  lapic[ID];  // wait for write to finish, by reading
  1026fa:	8b 15 38 b2 10 00    	mov    0x10b238,%edx
  102700:	8b 42 20             	mov    0x20(%edx),%eax
  102703:	e9 53 ff ff ff       	jmp    10265b <lapicinit+0x8b>
  102708:	90                   	nop    
  102709:	8d b4 26 00 00 00 00 	lea    0x0(%esi,%eiz,1),%esi

00102710 <lapiceoi>:

// Acknowledge interrupt.
void
lapiceoi(void)
{
  if(lapic)
  102710:	a1 38 b2 10 00       	mov    0x10b238,%eax
}

// Acknowledge interrupt.
void
lapiceoi(void)
{
  102715:	55                   	push   %ebp
  102716:	89 e5                	mov    %esp,%ebp
  if(lapic)
  102718:	85 c0                	test   %eax,%eax
  10271a:	74 12                	je     10272e <lapiceoi+0x1e>
volatile uint *lapic;  // Initialized in mp.c

static void
lapicw(int index, int value)
{
  lapic[index] = value;
  10271c:	c7 80 b0 00 00 00 00 	movl   $0x0,0xb0(%eax)
  102723:	00 00 00 
  lapic[ID];  // wait for write to finish, by reading
  102726:	a1 38 b2 10 00       	mov    0x10b238,%eax
  10272b:	8b 40 20             	mov    0x20(%eax),%eax
void
lapiceoi(void)
{
  if(lapic)
    lapicw(EOI, 0);
}
  10272e:	5d                   	pop    %ebp
  10272f:	c3                   	ret    

00102730 <microdelay>:

// Spin for a given number of microseconds.
// On real hardware would want to tune this dynamically.
void
microdelay(int us)
{
  102730:	55                   	push   %ebp
  102731:	89 e5                	mov    %esp,%ebp
}
  102733:	5d                   	pop    %ebp
  102734:	c3                   	ret    
  102735:	8d 74 26 00          	lea    0x0(%esi,%eiz,1),%esi
  102739:	8d bc 27 00 00 00 00 	lea    0x0(%edi,%eiz,1),%edi

00102740 <lapicstartap>:

// Start additional processor running bootstrap code at addr.
// See Appendix B of MultiProcessor Specification.
void
lapicstartap(uchar apicid, uint addr)
{
  102740:	55                   	push   %ebp
}

static inline void
outb(ushort port, uchar data)
{
  asm volatile("out %0,%1" : : "a" (data), "d" (port));
  102741:	ba 70 00 00 00       	mov    $0x70,%edx
  102746:	89 e5                	mov    %esp,%ebp
  102748:	b8 0f 00 00 00       	mov    $0xf,%eax
  10274d:	53                   	push   %ebx
  10274e:	8b 4d 0c             	mov    0xc(%ebp),%ecx
  102751:	0f b6 5d 08          	movzbl 0x8(%ebp),%ebx
  102755:	ee                   	out    %al,(%dx)
volatile uint *lapic;  // Initialized in mp.c

static void
lapicw(int index, int value)
{
  lapic[index] = value;
  102756:	b8 0a 00 00 00       	mov    $0xa,%eax
  10275b:	b2 71                	mov    $0x71,%dl
  10275d:	ee                   	out    %al,(%dx)
  10275e:	a1 38 b2 10 00       	mov    0x10b238,%eax
  102763:	c1 e3 18             	shl    $0x18,%ebx
  // the AP startup code prior to the [universal startup algorithm]."
  outb(IO_RTC, 0xF);  // offset 0xF is shutdown code
  outb(IO_RTC+1, 0x0A);
  wrv = (ushort*)(0x40<<4 | 0x67);  // Warm reset vector
  wrv[0] = 0;
  wrv[1] = addr >> 4;
  102766:	c1 e9 04             	shr    $0x4,%ecx
  102769:	66 89 0d 69 04 00 00 	mov    %cx,0x469

static void
lapicw(int index, int value)
{
  lapic[index] = value;
  lapic[ID];  // wait for write to finish, by reading
  102770:	c1 e9 08             	shr    $0x8,%ecx
  // and the warm reset vector (DWORD based at 40:67) to point at
  // the AP startup code prior to the [universal startup algorithm]."
  outb(IO_RTC, 0xF);  // offset 0xF is shutdown code
  outb(IO_RTC+1, 0x0A);
  wrv = (ushort*)(0x40<<4 | 0x67);  // Warm reset vector
  wrv[0] = 0;
  102773:	66 c7 05 67 04 00 00 	movw   $0x0,0x467
  10277a:	00 00 

static void
lapicw(int index, int value)
{
  lapic[index] = value;
  lapic[ID];  // wait for write to finish, by reading
  10277c:	80 cd 06             	or     $0x6,%ch
volatile uint *lapic;  // Initialized in mp.c

static void
lapicw(int index, int value)
{
  lapic[index] = value;
  10277f:	89 98 10 03 00 00    	mov    %ebx,0x310(%eax)
  lapic[ID];  // wait for write to finish, by reading
  102785:	a1 38 b2 10 00       	mov    0x10b238,%eax
  10278a:	8b 50 20             	mov    0x20(%eax),%edx
volatile uint *lapic;  // Initialized in mp.c

static void
lapicw(int index, int value)
{
  lapic[index] = value;
  10278d:	c7 80 00 03 00 00 00 	movl   $0xc500,0x300(%eax)
  102794:	c5 00 00 
  lapic[ID];  // wait for write to finish, by reading
  102797:	a1 38 b2 10 00       	mov    0x10b238,%eax
  10279c:	8b 50 20             	mov    0x20(%eax),%edx
volatile uint *lapic;  // Initialized in mp.c

static void
lapicw(int index, int value)
{
  lapic[index] = value;
  10279f:	c7 80 00 03 00 00 00 	movl   $0x8500,0x300(%eax)
  1027a6:	85 00 00 
  lapic[ID];  // wait for write to finish, by reading
  1027a9:	a1 38 b2 10 00       	mov    0x10b238,%eax
  1027ae:	8b 50 20             	mov    0x20(%eax),%edx
volatile uint *lapic;  // Initialized in mp.c

static void
lapicw(int index, int value)
{
  lapic[index] = value;
  1027b1:	89 98 10 03 00 00    	mov    %ebx,0x310(%eax)
  lapic[ID];  // wait for write to finish, by reading
  1027b7:	a1 38 b2 10 00       	mov    0x10b238,%eax
  1027bc:	8b 50 20             	mov    0x20(%eax),%edx
volatile uint *lapic;  // Initialized in mp.c

static void
lapicw(int index, int value)
{
  lapic[index] = value;
  1027bf:	89 88 00 03 00 00    	mov    %ecx,0x300(%eax)
  lapic[ID];  // wait for write to finish, by reading
  1027c5:	a1 38 b2 10 00       	mov    0x10b238,%eax
  1027ca:	8b 50 20             	mov    0x20(%eax),%edx
volatile uint *lapic;  // Initialized in mp.c

static void
lapicw(int index, int value)
{
  lapic[index] = value;
  1027cd:	89 98 10 03 00 00    	mov    %ebx,0x310(%eax)
  lapic[ID];  // wait for write to finish, by reading
  1027d3:	a1 38 b2 10 00       	mov    0x10b238,%eax
  1027d8:	8b 50 20             	mov    0x20(%eax),%edx
volatile uint *lapic;  // Initialized in mp.c

static void
lapicw(int index, int value)
{
  lapic[index] = value;
  1027db:	89 88 00 03 00 00    	mov    %ecx,0x300(%eax)
  lapic[ID];  // wait for write to finish, by reading
  1027e1:	a1 38 b2 10 00       	mov    0x10b238,%eax
  for(i = 0; i < 2; i++){
    lapicw(ICRHI, apicid<<24);
    lapicw(ICRLO, STARTUP | (addr>>12));
    microdelay(200);
  }
}
  1027e6:	5b                   	pop    %ebx
  1027e7:	5d                   	pop    %ebp

static void
lapicw(int index, int value)
{
  lapic[index] = value;
  lapic[ID];  // wait for write to finish, by reading
  1027e8:	8b 40 20             	mov    0x20(%eax),%eax
  for(i = 0; i < 2; i++){
    lapicw(ICRHI, apicid<<24);
    lapicw(ICRLO, STARTUP | (addr>>12));
    microdelay(200);
  }
}
  1027eb:	c3                   	ret    
  1027ec:	8d 74 26 00          	lea    0x0(%esi,%eiz,1),%esi

001027f0 <cpunum>:
  lapicw(TPR, 0);
}

int
cpunum(void)
{
  1027f0:	55                   	push   %ebp
  1027f1:	89 e5                	mov    %esp,%ebp
  1027f3:	83 ec 08             	sub    $0x8,%esp

static inline uint
readeflags(void)
{
  uint eflags;
  asm volatile("pushfl; popl %0" : "=r" (eflags));
  1027f6:	9c                   	pushf  
  1027f7:	58                   	pop    %eax
  // Cannot call cpu when interrupts are enabled:
  // result not guaranteed to last long enough to be used!
  // Would prefer to panic but even printing is chancy here:
  // almost everything, including cprintf and panic, calls cpu,
  // often indirectly through acquire and release.
  if(readeflags()&FL_IF){
  1027f8:	f6 c4 02             	test   $0x2,%ah
  1027fb:	74 12                	je     10280f <cpunum+0x1f>
    static int n;
    if(n++ == 0)
  1027fd:	8b 15 00 80 10 00    	mov    0x108000,%edx
  102803:	8d 42 01             	lea    0x1(%edx),%eax
  102806:	85 d2                	test   %edx,%edx
  102808:	a3 00 80 10 00       	mov    %eax,0x108000
  10280d:	74 19                	je     102828 <cpunum+0x38>
      cprintf("cpu called from %x with interrupts enabled\n",
        __builtin_return_address(0));
  }

  if(lapic)
  10280f:	8b 15 38 b2 10 00    	mov    0x10b238,%edx
  102815:	31 c0                	xor    %eax,%eax
  102817:	85 d2                	test   %edx,%edx
  102819:	74 06                	je     102821 <cpunum+0x31>
    return lapic[ID]>>24;
  10281b:	8b 42 20             	mov    0x20(%edx),%eax
  10281e:	c1 e8 18             	shr    $0x18,%eax
  return 0;
}
  102821:	c9                   	leave  
  102822:	c3                   	ret    
  102823:	90                   	nop    
  102824:	8d 74 26 00          	lea    0x0(%esi,%eiz,1),%esi
  // almost everything, including cprintf and panic, calls cpu,
  // often indirectly through acquire and release.
  if(readeflags()&FL_IF){
    static int n;
    if(n++ == 0)
      cprintf("cpu called from %x with interrupts enabled\n",
  102828:	8b 45 04             	mov    0x4(%ebp),%eax
  10282b:	c7 04 24 d0 63 10 00 	movl   $0x1063d0,(%esp)
  102832:	89 44 24 04          	mov    %eax,0x4(%esp)
  102836:	e8 65 dc ff ff       	call   1004a0 <cprintf>
  10283b:	eb d2                	jmp    10280f <cpunum+0x1f>
  10283d:	90                   	nop    
  10283e:	90                   	nop    
  10283f:	90                   	nop    

00102840 <mpmain>:

// Bootstrap processor gets here after setting up the hardware.
// Additional processors start here.
static void
mpmain(void)
{
  102840:	55                   	push   %ebp
  102841:	89 e5                	mov    %esp,%ebp
  102843:	53                   	push   %ebx
  102844:	83 ec 14             	sub    $0x14,%esp
  if(cpunum() != mpbcpu())
  102847:	e8 a4 ff ff ff       	call   1027f0 <cpunum>
  10284c:	89 c3                	mov    %eax,%ebx
  10284e:	e8 ed 01 00 00       	call   102a40 <mpbcpu>
  102853:	39 c3                	cmp    %eax,%ebx
  102855:	74 0d                	je     102864 <mpmain+0x24>
    lapicinit(cpunum());
  102857:	e8 94 ff ff ff       	call   1027f0 <cpunum>
  10285c:	89 04 24             	mov    %eax,(%esp)
  10285f:	e8 6c fd ff ff       	call   1025d0 <lapicinit>
  ksegment();
  102864:	e8 f7 12 00 00       	call   103b60 <ksegment>
  cprintf("cpu%d: mpmain\n", cpu->id);
  102869:	65 a1 00 00 00 00    	mov    %gs:0x0,%eax
  10286f:	0f b6 00             	movzbl (%eax),%eax
  102872:	c7 04 24 fc 63 10 00 	movl   $0x1063fc,(%esp)
  102879:	89 44 24 04          	mov    %eax,0x4(%esp)
  10287d:	e8 1e dc ff ff       	call   1004a0 <cprintf>
  idtinit();
  102882:	e8 e9 27 00 00       	call   105070 <idtinit>
  xchg(&cpu->booted, 1);
  102887:	65 a1 00 00 00 00    	mov    %gs:0x0,%eax
xchg(volatile uint *addr, uint newval)
{
  uint result;
  
  // The + in "+m" denotes a read-modify-write operand.
  asm volatile("lock; xchgl %0, %1" :
  10288d:	ba 01 00 00 00       	mov    $0x1,%edx
  102892:	8d 88 a8 00 00 00    	lea    0xa8(%eax),%ecx
  102898:	89 d0                	mov    %edx,%eax
  10289a:	f0 87 01             	lock xchg %eax,(%ecx)

  cprintf("cpu%d: scheduling\n", cpu->id);
  10289d:	65 a1 00 00 00 00    	mov    %gs:0x0,%eax
  1028a3:	0f b6 00             	movzbl (%eax),%eax
  1028a6:	c7 04 24 0b 64 10 00 	movl   $0x10640b,(%esp)
  1028ad:	89 44 24 04          	mov    %eax,0x4(%esp)
  1028b1:	e8 ea db ff ff       	call   1004a0 <cprintf>
  scheduler();
  1028b6:	e8 65 11 00 00       	call   103a20 <scheduler>
  1028bb:	90                   	nop    
  1028bc:	8d 74 26 00          	lea    0x0(%esi,%eiz,1),%esi

001028c0 <main>:
static void mpmain(void) __attribute__((noreturn));

// Bootstrap processor starts running C code here.
int
main(void)
{
  1028c0:	8d 4c 24 04          	lea    0x4(%esp),%ecx
  1028c4:	83 e4 f0             	and    $0xfffffff0,%esp
  1028c7:	ff 71 fc             	pushl  -0x4(%ecx)
  1028ca:	55                   	push   %ebp
  1028cb:	89 e5                	mov    %esp,%ebp
  1028cd:	53                   	push   %ebx
  1028ce:	51                   	push   %ecx
  1028cf:	83 ec 10             	sub    $0x10,%esp
  mpinit(); // collect info about this machine
  1028d2:	e8 f9 01 00 00       	call   102ad0 <mpinit>
  lapicinit(mpbcpu());
  1028d7:	e8 64 01 00 00       	call   102a40 <mpbcpu>
  1028dc:	89 04 24             	mov    %eax,(%esp)
  1028df:	e8 ec fc ff ff       	call   1025d0 <lapicinit>
  ksegment();
  1028e4:	e8 77 12 00 00       	call   103b60 <ksegment>
  picinit();       // interrupt controller
  1028e9:	e8 12 04 00 00       	call   102d00 <picinit>
  1028ee:	66 90                	xchg   %ax,%ax
  ioapicinit();    // another interrupt controller
  1028f0:	e8 1b f9 ff ff       	call   102210 <ioapicinit>
  1028f5:	8d 76 00             	lea    0x0(%esi),%esi
  consoleinit();   // I/O devices & their interrupts
  1028f8:	e8 13 d9 ff ff       	call   100210 <consoleinit>
  1028fd:	8d 76 00             	lea    0x0(%esi),%esi
  uartinit();      // serial port
  102900:	e8 2b 2b 00 00       	call   105430 <uartinit>
cprintf("cpus %p cpu %p\n", cpus, cpu);
  102905:	65 a1 00 00 00 00    	mov    %gs:0x0,%eax
  10290b:	c7 44 24 04 60 b2 10 	movl   $0x10b260,0x4(%esp)
  102912:	00 
  102913:	c7 04 24 1e 64 10 00 	movl   $0x10641e,(%esp)
  10291a:	89 44 24 08          	mov    %eax,0x8(%esp)
  10291e:	e8 7d db ff ff       	call   1004a0 <cprintf>
  cprintf("\ncpu%d: starting xv6\n\n", cpu->id);
  102923:	65 a1 00 00 00 00    	mov    %gs:0x0,%eax
  102929:	0f b6 00             	movzbl (%eax),%eax
  10292c:	c7 04 24 2e 64 10 00 	movl   $0x10642e,(%esp)
  102933:	89 44 24 04          	mov    %eax,0x4(%esp)
  102937:	e8 64 db ff ff       	call   1004a0 <cprintf>

  kinit();         // physical memory allocator
  10293c:	e8 3f fb ff ff       	call   102480 <kinit>
  pinit();         // process table
  102941:	e8 ba 13 00 00       	call   103d00 <pinit>
  102946:	66 90                	xchg   %ax,%ax
  tvinit();        // trap vectors
  102948:	e8 a3 29 00 00       	call   1052f0 <tvinit>
  10294d:	8d 76 00             	lea    0x0(%esi),%esi
  binit();         // buffer cache
  102950:	e8 4b d8 ff ff       	call   1001a0 <binit>
  102955:	8d 76 00             	lea    0x0(%esi),%esi
  fileinit();      // file table
  102958:	e8 c3 e6 ff ff       	call   101020 <fileinit>
  10295d:	8d 76 00             	lea    0x0(%esi),%esi
  iinit();         // inode cache
  102960:	e8 5b f5 ff ff       	call   101ec0 <iinit>
  102965:	8d 76 00             	lea    0x0(%esi),%esi
  ideinit();       // disk
  102968:	e8 b3 f7 ff ff       	call   102120 <ideinit>
  if(!ismp)
  10296d:	a1 44 b2 10 00       	mov    0x10b244,%eax
  102972:	85 c0                	test   %eax,%eax
  102974:	0f 84 ae 00 00 00    	je     102a28 <main+0x168>
    timerinit();   // uniprocessor timer
  userinit();      // first user process
  10297a:	e8 91 0e 00 00       	call   103810 <userinit>
  struct cpu *c;
  char *stack;

  // Write bootstrap code to unused memory at 0x7000.
  code = (uchar*)0x7000;
  memmove(code, _binary_bootother_start, (uint)_binary_bootother_size);
  10297f:	c7 44 24 08 6a 00 00 	movl   $0x6a,0x8(%esp)
  102986:	00 
  102987:	c7 44 24 04 f4 7e 10 	movl   $0x107ef4,0x4(%esp)
  10298e:	00 
  10298f:	c7 04 24 00 70 00 00 	movl   $0x7000,(%esp)
  102996:	e8 45 16 00 00       	call   103fe0 <memmove>

  for(c = cpus; c < cpus+ncpu; c++){
  10299b:	69 05 40 b8 10 00 bc 	imul   $0xbc,0x10b840,%eax
  1029a2:	00 00 00 
  1029a5:	05 60 b2 10 00       	add    $0x10b260,%eax
  1029aa:	3d 60 b2 10 00       	cmp    $0x10b260,%eax
  1029af:	76 72                	jbe    102a23 <main+0x163>
  1029b1:	bb 60 b2 10 00       	mov    $0x10b260,%ebx
  1029b6:	66 90                	xchg   %ax,%ax
    if(c == cpus+cpunum())  // We've started already.
  1029b8:	e8 33 fe ff ff       	call   1027f0 <cpunum>
  1029bd:	69 c0 bc 00 00 00    	imul   $0xbc,%eax,%eax
  1029c3:	05 60 b2 10 00       	add    $0x10b260,%eax
  1029c8:	39 c3                	cmp    %eax,%ebx
  1029ca:	74 3e                	je     102a0a <main+0x14a>
      continue;

    // Fill in %esp, %eip and start code on cpu.
    stack = kalloc(KSTACKSIZE);
  1029cc:	c7 04 24 00 10 00 00 	movl   $0x1000,(%esp)
  1029d3:	e8 e8 f8 ff ff       	call   1022c0 <kalloc>
    *(void**)(code-4) = stack + KSTACKSIZE;
    *(void**)(code-8) = mpmain;
  1029d8:	c7 05 f8 6f 00 00 40 	movl   $0x102840,0x6ff8
  1029df:	28 10 00 
    if(c == cpus+cpunum())  // We've started already.
      continue;

    // Fill in %esp, %eip and start code on cpu.
    stack = kalloc(KSTACKSIZE);
    *(void**)(code-4) = stack + KSTACKSIZE;
  1029e2:	05 00 10 00 00       	add    $0x1000,%eax
  1029e7:	a3 fc 6f 00 00       	mov    %eax,0x6ffc
    *(void**)(code-8) = mpmain;
    lapicstartap(c->id, (uint)code);
  1029ec:	0f b6 03             	movzbl (%ebx),%eax
  1029ef:	c7 44 24 04 00 70 00 	movl   $0x7000,0x4(%esp)
  1029f6:	00 
  1029f7:	89 04 24             	mov    %eax,(%esp)
  1029fa:	e8 41 fd ff ff       	call   102740 <lapicstartap>
  1029ff:	90                   	nop    

    // Wait for cpu to get through bootstrap.
    while(c->booted == 0)
  102a00:	8b 83 a8 00 00 00    	mov    0xa8(%ebx),%eax
  102a06:	85 c0                	test   %eax,%eax
  102a08:	74 f6                	je     102a00 <main+0x140>

  // Write bootstrap code to unused memory at 0x7000.
  code = (uchar*)0x7000;
  memmove(code, _binary_bootother_start, (uint)_binary_bootother_size);

  for(c = cpus; c < cpus+ncpu; c++){
  102a0a:	69 05 40 b8 10 00 bc 	imul   $0xbc,0x10b840,%eax
  102a11:	00 00 00 
  102a14:	81 c3 bc 00 00 00    	add    $0xbc,%ebx
  102a1a:	05 60 b2 10 00       	add    $0x10b260,%eax
  102a1f:	39 c3                	cmp    %eax,%ebx
  102a21:	72 95                	jb     1029b8 <main+0xf8>
    timerinit();   // uniprocessor timer
  userinit();      // first user process
  bootothers();    // start other processors

